
tmp/kernel.elf:     file format elf64-x86-64


Disassembly of section .entry:

0000000001000000 <kernel_start>:
 1000000:	d6                   	(bad)  
 1000001:	50                   	push   rax
 1000002:	52                   	push   rdx
 1000003:	e8 00 00 00 00       	call   1000008 <kernel_start+0x8>
 1000008:	58                   	pop    rax
 1000009:	00 00                	add    BYTE PTR [rax],al
 100000b:	00 d2                	add    dl,dl
 100000d:	ae                   	scas   al,BYTE PTR es:[rdi]
 100000e:	ad                   	lods   eax,DWORD PTR ds:[rsi]
 100000f:	17                   	(bad)  

0000000001000010 <MULTIBOOT_INFO_TAG>:
 1000010:	01 00                	add    DWORD PTR [rax],eax
 1000012:	00 00                	add    BYTE PTR [rax],al
 1000014:	10 00                	adc    BYTE PTR [rax],al
 1000016:	00 00                	add    BYTE PTR [rax],al
 1000018:	06                   	(bad)  
 1000019:	00 00                	add    BYTE PTR [rax],al
 100001b:	00 0a                	add    BYTE PTR [rdx],cl
 100001d:	00 00                	add    BYTE PTR [rax],al
	...

0000000001000020 <MULTIBOOT_ADDRESS_TAG>:
 1000020:	02 00                	add    al,BYTE PTR [rax]
 1000022:	00 00                	add    BYTE PTR [rax],al
 1000024:	18 00                	sbb    BYTE PTR [rax],al
 1000026:	00 00                	add    BYTE PTR [rax],al
 1000028:	00 00                	add    BYTE PTR [rax],al
 100002a:	00 01                	add    BYTE PTR [rcx],al
 100002c:	00 00                	add    BYTE PTR [rax],al
 100002e:	00 01                	add    BYTE PTR [rcx],al
	...

0000000001000038 <MULTIBOOT_ENTRY_TAG>:
 1000038:	03 00                	add    eax,DWORD PTR [rax]
 100003a:	00 00                	add    BYTE PTR [rax],al
 100003c:	0c 00                	or     al,0x0
 100003e:	00 00                	add    BYTE PTR [rax],al
 1000040:	00 40 00             	add    BYTE PTR [rax+0x0],al
 1000043:	01 90 90 90 90 06    	add    DWORD PTR [rax+0x6909090],edx
 1000049:	00 00                	add    BYTE PTR [rax],al
 100004b:	00 08                	add    BYTE PTR [rax],cl
 100004d:	00 00                	add    BYTE PTR [rax],al
 100004f:	00 00                	add    BYTE PTR [rax],al
 1000051:	00 00                	add    BYTE PTR [rax],al
 1000053:	00 08                	add    BYTE PTR [rax],cl
 1000055:	00 00                	add    BYTE PTR [rax],al
 1000057:	00 90 90 90 90 90    	add    BYTE PTR [rax-0x6f6f6f70],dl
 100005d:	90                   	nop
 100005e:	90                   	nop
 100005f:	90                   	nop
 1000060:	90                   	nop
 1000061:	90                   	nop
 1000062:	90                   	nop
 1000063:	90                   	nop
 1000064:	90                   	nop
 1000065:	90                   	nop
 1000066:	90                   	nop
 1000067:	90                   	nop
 1000068:	90                   	nop
 1000069:	90                   	nop
 100006a:	90                   	nop
 100006b:	90                   	nop
 100006c:	90                   	nop
 100006d:	90                   	nop
 100006e:	90                   	nop
 100006f:	90                   	nop
 1000070:	90                   	nop
 1000071:	90                   	nop
 1000072:	90                   	nop
 1000073:	90                   	nop
 1000074:	90                   	nop
 1000075:	90                   	nop
 1000076:	90                   	nop
 1000077:	90                   	nop
 1000078:	90                   	nop
 1000079:	90                   	nop
 100007a:	90                   	nop
 100007b:	90                   	nop
 100007c:	90                   	nop
 100007d:	90                   	nop
 100007e:	90                   	nop
 100007f:	90                   	nop
 1000080:	90                   	nop
 1000081:	90                   	nop
 1000082:	90                   	nop
 1000083:	90                   	nop
 1000084:	90                   	nop
 1000085:	90                   	nop
 1000086:	90                   	nop
 1000087:	90                   	nop
 1000088:	90                   	nop
 1000089:	90                   	nop
 100008a:	90                   	nop
 100008b:	90                   	nop
 100008c:	90                   	nop
 100008d:	90                   	nop
 100008e:	90                   	nop
 100008f:	90                   	nop
 1000090:	90                   	nop
 1000091:	90                   	nop
 1000092:	90                   	nop
 1000093:	90                   	nop
 1000094:	90                   	nop
 1000095:	90                   	nop
 1000096:	90                   	nop
 1000097:	90                   	nop
 1000098:	90                   	nop
 1000099:	90                   	nop
 100009a:	90                   	nop
 100009b:	90                   	nop
 100009c:	90                   	nop
 100009d:	90                   	nop
 100009e:	90                   	nop
 100009f:	90                   	nop
 10000a0:	90                   	nop
 10000a1:	90                   	nop
 10000a2:	90                   	nop
 10000a3:	90                   	nop
 10000a4:	90                   	nop
 10000a5:	90                   	nop
 10000a6:	90                   	nop
 10000a7:	90                   	nop
 10000a8:	90                   	nop
 10000a9:	90                   	nop
 10000aa:	90                   	nop
 10000ab:	90                   	nop
 10000ac:	90                   	nop
 10000ad:	90                   	nop
 10000ae:	90                   	nop
 10000af:	90                   	nop
 10000b0:	90                   	nop
 10000b1:	90                   	nop
 10000b2:	90                   	nop
 10000b3:	90                   	nop
 10000b4:	90                   	nop
 10000b5:	90                   	nop
 10000b6:	90                   	nop
 10000b7:	90                   	nop
 10000b8:	90                   	nop
 10000b9:	90                   	nop
 10000ba:	90                   	nop
 10000bb:	90                   	nop
 10000bc:	90                   	nop
 10000bd:	90                   	nop
 10000be:	90                   	nop
 10000bf:	90                   	nop
 10000c0:	90                   	nop
 10000c1:	90                   	nop
 10000c2:	90                   	nop
 10000c3:	90                   	nop
 10000c4:	90                   	nop
 10000c5:	90                   	nop
 10000c6:	90                   	nop
 10000c7:	90                   	nop
 10000c8:	90                   	nop
 10000c9:	90                   	nop
 10000ca:	90                   	nop
 10000cb:	90                   	nop
 10000cc:	90                   	nop
 10000cd:	90                   	nop
 10000ce:	90                   	nop
 10000cf:	90                   	nop
 10000d0:	90                   	nop
 10000d1:	90                   	nop
 10000d2:	90                   	nop
 10000d3:	90                   	nop
 10000d4:	90                   	nop
 10000d5:	90                   	nop
 10000d6:	90                   	nop
 10000d7:	90                   	nop
 10000d8:	90                   	nop
 10000d9:	90                   	nop
 10000da:	90                   	nop
 10000db:	90                   	nop
 10000dc:	90                   	nop
 10000dd:	90                   	nop
 10000de:	90                   	nop
 10000df:	90                   	nop
 10000e0:	90                   	nop
 10000e1:	90                   	nop
 10000e2:	90                   	nop
 10000e3:	90                   	nop
 10000e4:	90                   	nop
 10000e5:	90                   	nop
 10000e6:	90                   	nop
 10000e7:	90                   	nop
 10000e8:	90                   	nop
 10000e9:	90                   	nop
 10000ea:	90                   	nop
 10000eb:	90                   	nop
 10000ec:	90                   	nop
 10000ed:	90                   	nop
 10000ee:	90                   	nop
 10000ef:	90                   	nop
 10000f0:	90                   	nop
 10000f1:	90                   	nop
 10000f2:	90                   	nop
 10000f3:	90                   	nop
 10000f4:	90                   	nop
 10000f5:	90                   	nop
 10000f6:	90                   	nop
 10000f7:	90                   	nop
 10000f8:	90                   	nop
 10000f9:	90                   	nop
 10000fa:	90                   	nop
 10000fb:	90                   	nop
 10000fc:	90                   	nop
 10000fd:	90                   	nop
 10000fe:	90                   	nop
 10000ff:	90                   	nop
 1000100:	90                   	nop
 1000101:	90                   	nop
 1000102:	90                   	nop
 1000103:	90                   	nop
 1000104:	90                   	nop
 1000105:	90                   	nop
 1000106:	90                   	nop
 1000107:	90                   	nop
 1000108:	90                   	nop
 1000109:	90                   	nop
 100010a:	90                   	nop
 100010b:	90                   	nop
 100010c:	90                   	nop
 100010d:	90                   	nop
 100010e:	90                   	nop
 100010f:	90                   	nop
 1000110:	90                   	nop
 1000111:	90                   	nop
 1000112:	90                   	nop
 1000113:	90                   	nop
 1000114:	90                   	nop
 1000115:	90                   	nop
 1000116:	90                   	nop
 1000117:	90                   	nop
 1000118:	90                   	nop
 1000119:	90                   	nop
 100011a:	90                   	nop
 100011b:	90                   	nop
 100011c:	90                   	nop
 100011d:	90                   	nop
 100011e:	90                   	nop
 100011f:	90                   	nop
 1000120:	90                   	nop
 1000121:	90                   	nop
 1000122:	90                   	nop
 1000123:	90                   	nop
 1000124:	90                   	nop
 1000125:	90                   	nop
 1000126:	90                   	nop
 1000127:	90                   	nop
 1000128:	90                   	nop
 1000129:	90                   	nop
 100012a:	90                   	nop
 100012b:	90                   	nop
 100012c:	90                   	nop
 100012d:	90                   	nop
 100012e:	90                   	nop
 100012f:	90                   	nop
 1000130:	90                   	nop
 1000131:	90                   	nop
 1000132:	90                   	nop
 1000133:	90                   	nop
 1000134:	90                   	nop
 1000135:	90                   	nop
 1000136:	90                   	nop
 1000137:	90                   	nop
 1000138:	90                   	nop
 1000139:	90                   	nop
 100013a:	90                   	nop
 100013b:	90                   	nop
 100013c:	90                   	nop
 100013d:	90                   	nop
 100013e:	90                   	nop
 100013f:	90                   	nop
 1000140:	90                   	nop
 1000141:	90                   	nop
 1000142:	90                   	nop
 1000143:	90                   	nop
 1000144:	90                   	nop
 1000145:	90                   	nop
 1000146:	90                   	nop
 1000147:	90                   	nop
 1000148:	90                   	nop
 1000149:	90                   	nop
 100014a:	90                   	nop
 100014b:	90                   	nop
 100014c:	90                   	nop
 100014d:	90                   	nop
 100014e:	90                   	nop
 100014f:	90                   	nop
 1000150:	90                   	nop
 1000151:	90                   	nop
 1000152:	90                   	nop
 1000153:	90                   	nop
 1000154:	90                   	nop
 1000155:	90                   	nop
 1000156:	90                   	nop
 1000157:	90                   	nop
 1000158:	90                   	nop
 1000159:	90                   	nop
 100015a:	90                   	nop
 100015b:	90                   	nop
 100015c:	90                   	nop
 100015d:	90                   	nop
 100015e:	90                   	nop
 100015f:	90                   	nop
 1000160:	90                   	nop
 1000161:	90                   	nop
 1000162:	90                   	nop
 1000163:	90                   	nop
 1000164:	90                   	nop
 1000165:	90                   	nop
 1000166:	90                   	nop
 1000167:	90                   	nop
 1000168:	90                   	nop
 1000169:	90                   	nop
 100016a:	90                   	nop
 100016b:	90                   	nop
 100016c:	90                   	nop
 100016d:	90                   	nop
 100016e:	90                   	nop
 100016f:	90                   	nop
 1000170:	90                   	nop
 1000171:	90                   	nop
 1000172:	90                   	nop
 1000173:	90                   	nop
 1000174:	90                   	nop
 1000175:	90                   	nop
 1000176:	90                   	nop
 1000177:	90                   	nop
 1000178:	90                   	nop
 1000179:	90                   	nop
 100017a:	90                   	nop
 100017b:	90                   	nop
 100017c:	90                   	nop
 100017d:	90                   	nop
 100017e:	90                   	nop
 100017f:	90                   	nop
 1000180:	90                   	nop
 1000181:	90                   	nop
 1000182:	90                   	nop
 1000183:	90                   	nop
 1000184:	90                   	nop
 1000185:	90                   	nop
 1000186:	90                   	nop
 1000187:	90                   	nop
 1000188:	90                   	nop
 1000189:	90                   	nop
 100018a:	90                   	nop
 100018b:	90                   	nop
 100018c:	90                   	nop
 100018d:	90                   	nop
 100018e:	90                   	nop
 100018f:	90                   	nop
 1000190:	90                   	nop
 1000191:	90                   	nop
 1000192:	90                   	nop
 1000193:	90                   	nop
 1000194:	90                   	nop
 1000195:	90                   	nop
 1000196:	90                   	nop
 1000197:	90                   	nop
 1000198:	90                   	nop
 1000199:	90                   	nop
 100019a:	90                   	nop
 100019b:	90                   	nop
 100019c:	90                   	nop
 100019d:	90                   	nop
 100019e:	90                   	nop
 100019f:	90                   	nop
 10001a0:	90                   	nop
 10001a1:	90                   	nop
 10001a2:	90                   	nop
 10001a3:	90                   	nop
 10001a4:	90                   	nop
 10001a5:	90                   	nop
 10001a6:	90                   	nop
 10001a7:	90                   	nop
 10001a8:	90                   	nop
 10001a9:	90                   	nop
 10001aa:	90                   	nop
 10001ab:	90                   	nop
 10001ac:	90                   	nop
 10001ad:	90                   	nop
 10001ae:	90                   	nop
 10001af:	90                   	nop
 10001b0:	90                   	nop
 10001b1:	90                   	nop
 10001b2:	90                   	nop
 10001b3:	90                   	nop
 10001b4:	90                   	nop
 10001b5:	90                   	nop
 10001b6:	90                   	nop
 10001b7:	90                   	nop
 10001b8:	90                   	nop
 10001b9:	90                   	nop
 10001ba:	90                   	nop
 10001bb:	90                   	nop
 10001bc:	90                   	nop
 10001bd:	90                   	nop
 10001be:	90                   	nop
 10001bf:	90                   	nop
 10001c0:	90                   	nop
 10001c1:	90                   	nop
 10001c2:	90                   	nop
 10001c3:	90                   	nop
 10001c4:	90                   	nop
 10001c5:	90                   	nop
 10001c6:	90                   	nop
 10001c7:	90                   	nop
 10001c8:	90                   	nop
 10001c9:	90                   	nop
 10001ca:	90                   	nop
 10001cb:	90                   	nop
 10001cc:	90                   	nop
 10001cd:	90                   	nop
 10001ce:	90                   	nop
 10001cf:	90                   	nop
 10001d0:	90                   	nop
 10001d1:	90                   	nop
 10001d2:	90                   	nop
 10001d3:	90                   	nop
 10001d4:	90                   	nop
 10001d5:	90                   	nop
 10001d6:	90                   	nop
 10001d7:	90                   	nop
 10001d8:	90                   	nop
 10001d9:	90                   	nop
 10001da:	90                   	nop
 10001db:	90                   	nop
 10001dc:	90                   	nop
 10001dd:	90                   	nop
 10001de:	90                   	nop
 10001df:	90                   	nop
 10001e0:	90                   	nop
 10001e1:	90                   	nop
 10001e2:	90                   	nop
 10001e3:	90                   	nop
 10001e4:	90                   	nop
 10001e5:	90                   	nop
 10001e6:	90                   	nop
 10001e7:	90                   	nop
 10001e8:	90                   	nop
 10001e9:	90                   	nop
 10001ea:	90                   	nop
 10001eb:	90                   	nop
 10001ec:	90                   	nop
 10001ed:	90                   	nop
 10001ee:	90                   	nop
 10001ef:	90                   	nop
 10001f0:	90                   	nop
 10001f1:	90                   	nop
 10001f2:	90                   	nop
 10001f3:	90                   	nop
 10001f4:	90                   	nop
 10001f5:	90                   	nop
 10001f6:	90                   	nop
 10001f7:	90                   	nop
 10001f8:	90                   	nop
 10001f9:	90                   	nop
 10001fa:	90                   	nop
 10001fb:	90                   	nop
 10001fc:	90                   	nop
 10001fd:	90                   	nop
 10001fe:	90                   	nop
 10001ff:	90                   	nop
 1000200:	90                   	nop
 1000201:	90                   	nop
 1000202:	90                   	nop
 1000203:	90                   	nop
 1000204:	90                   	nop
 1000205:	90                   	nop
 1000206:	90                   	nop
 1000207:	90                   	nop
 1000208:	90                   	nop
 1000209:	90                   	nop
 100020a:	90                   	nop
 100020b:	90                   	nop
 100020c:	90                   	nop
 100020d:	90                   	nop
 100020e:	90                   	nop
 100020f:	90                   	nop
 1000210:	90                   	nop
 1000211:	90                   	nop
 1000212:	90                   	nop
 1000213:	90                   	nop
 1000214:	90                   	nop
 1000215:	90                   	nop
 1000216:	90                   	nop
 1000217:	90                   	nop
 1000218:	90                   	nop
 1000219:	90                   	nop
 100021a:	90                   	nop
 100021b:	90                   	nop
 100021c:	90                   	nop
 100021d:	90                   	nop
 100021e:	90                   	nop
 100021f:	90                   	nop
 1000220:	90                   	nop
 1000221:	90                   	nop
 1000222:	90                   	nop
 1000223:	90                   	nop
 1000224:	90                   	nop
 1000225:	90                   	nop
 1000226:	90                   	nop
 1000227:	90                   	nop
 1000228:	90                   	nop
 1000229:	90                   	nop
 100022a:	90                   	nop
 100022b:	90                   	nop
 100022c:	90                   	nop
 100022d:	90                   	nop
 100022e:	90                   	nop
 100022f:	90                   	nop
 1000230:	90                   	nop
 1000231:	90                   	nop
 1000232:	90                   	nop
 1000233:	90                   	nop
 1000234:	90                   	nop
 1000235:	90                   	nop
 1000236:	90                   	nop
 1000237:	90                   	nop
 1000238:	90                   	nop
 1000239:	90                   	nop
 100023a:	90                   	nop
 100023b:	90                   	nop
 100023c:	90                   	nop
 100023d:	90                   	nop
 100023e:	90                   	nop
 100023f:	90                   	nop
 1000240:	90                   	nop
 1000241:	90                   	nop
 1000242:	90                   	nop
 1000243:	90                   	nop
 1000244:	90                   	nop
 1000245:	90                   	nop
 1000246:	90                   	nop
 1000247:	90                   	nop
 1000248:	90                   	nop
 1000249:	90                   	nop
 100024a:	90                   	nop
 100024b:	90                   	nop
 100024c:	90                   	nop
 100024d:	90                   	nop
 100024e:	90                   	nop
 100024f:	90                   	nop
 1000250:	90                   	nop
 1000251:	90                   	nop
 1000252:	90                   	nop
 1000253:	90                   	nop
 1000254:	90                   	nop
 1000255:	90                   	nop
 1000256:	90                   	nop
 1000257:	90                   	nop
 1000258:	90                   	nop
 1000259:	90                   	nop
 100025a:	90                   	nop
 100025b:	90                   	nop
 100025c:	90                   	nop
 100025d:	90                   	nop
 100025e:	90                   	nop
 100025f:	90                   	nop
 1000260:	90                   	nop
 1000261:	90                   	nop
 1000262:	90                   	nop
 1000263:	90                   	nop
 1000264:	90                   	nop
 1000265:	90                   	nop
 1000266:	90                   	nop
 1000267:	90                   	nop
 1000268:	90                   	nop
 1000269:	90                   	nop
 100026a:	90                   	nop
 100026b:	90                   	nop
 100026c:	90                   	nop
 100026d:	90                   	nop
 100026e:	90                   	nop
 100026f:	90                   	nop
 1000270:	90                   	nop
 1000271:	90                   	nop
 1000272:	90                   	nop
 1000273:	90                   	nop
 1000274:	90                   	nop
 1000275:	90                   	nop
 1000276:	90                   	nop
 1000277:	90                   	nop
 1000278:	90                   	nop
 1000279:	90                   	nop
 100027a:	90                   	nop
 100027b:	90                   	nop
 100027c:	90                   	nop
 100027d:	90                   	nop
 100027e:	90                   	nop
 100027f:	90                   	nop
 1000280:	90                   	nop
 1000281:	90                   	nop
 1000282:	90                   	nop
 1000283:	90                   	nop
 1000284:	90                   	nop
 1000285:	90                   	nop
 1000286:	90                   	nop
 1000287:	90                   	nop
 1000288:	90                   	nop
 1000289:	90                   	nop
 100028a:	90                   	nop
 100028b:	90                   	nop
 100028c:	90                   	nop
 100028d:	90                   	nop
 100028e:	90                   	nop
 100028f:	90                   	nop
 1000290:	90                   	nop
 1000291:	90                   	nop
 1000292:	90                   	nop
 1000293:	90                   	nop
 1000294:	90                   	nop
 1000295:	90                   	nop
 1000296:	90                   	nop
 1000297:	90                   	nop
 1000298:	90                   	nop
 1000299:	90                   	nop
 100029a:	90                   	nop
 100029b:	90                   	nop
 100029c:	90                   	nop
 100029d:	90                   	nop
 100029e:	90                   	nop
 100029f:	90                   	nop
 10002a0:	90                   	nop
 10002a1:	90                   	nop
 10002a2:	90                   	nop
 10002a3:	90                   	nop
 10002a4:	90                   	nop
 10002a5:	90                   	nop
 10002a6:	90                   	nop
 10002a7:	90                   	nop
 10002a8:	90                   	nop
 10002a9:	90                   	nop
 10002aa:	90                   	nop
 10002ab:	90                   	nop
 10002ac:	90                   	nop
 10002ad:	90                   	nop
 10002ae:	90                   	nop
 10002af:	90                   	nop
 10002b0:	90                   	nop
 10002b1:	90                   	nop
 10002b2:	90                   	nop
 10002b3:	90                   	nop
 10002b4:	90                   	nop
 10002b5:	90                   	nop
 10002b6:	90                   	nop
 10002b7:	90                   	nop
 10002b8:	90                   	nop
 10002b9:	90                   	nop
 10002ba:	90                   	nop
 10002bb:	90                   	nop
 10002bc:	90                   	nop
 10002bd:	90                   	nop
 10002be:	90                   	nop
 10002bf:	90                   	nop
 10002c0:	90                   	nop
 10002c1:	90                   	nop
 10002c2:	90                   	nop
 10002c3:	90                   	nop
 10002c4:	90                   	nop
 10002c5:	90                   	nop
 10002c6:	90                   	nop
 10002c7:	90                   	nop
 10002c8:	90                   	nop
 10002c9:	90                   	nop
 10002ca:	90                   	nop
 10002cb:	90                   	nop
 10002cc:	90                   	nop
 10002cd:	90                   	nop
 10002ce:	90                   	nop
 10002cf:	90                   	nop
 10002d0:	90                   	nop
 10002d1:	90                   	nop
 10002d2:	90                   	nop
 10002d3:	90                   	nop
 10002d4:	90                   	nop
 10002d5:	90                   	nop
 10002d6:	90                   	nop
 10002d7:	90                   	nop
 10002d8:	90                   	nop
 10002d9:	90                   	nop
 10002da:	90                   	nop
 10002db:	90                   	nop
 10002dc:	90                   	nop
 10002dd:	90                   	nop
 10002de:	90                   	nop
 10002df:	90                   	nop
 10002e0:	90                   	nop
 10002e1:	90                   	nop
 10002e2:	90                   	nop
 10002e3:	90                   	nop
 10002e4:	90                   	nop
 10002e5:	90                   	nop
 10002e6:	90                   	nop
 10002e7:	90                   	nop
 10002e8:	90                   	nop
 10002e9:	90                   	nop
 10002ea:	90                   	nop
 10002eb:	90                   	nop
 10002ec:	90                   	nop
 10002ed:	90                   	nop
 10002ee:	90                   	nop
 10002ef:	90                   	nop
 10002f0:	90                   	nop
 10002f1:	90                   	nop
 10002f2:	90                   	nop
 10002f3:	90                   	nop
 10002f4:	90                   	nop
 10002f5:	90                   	nop
 10002f6:	90                   	nop
 10002f7:	90                   	nop
 10002f8:	90                   	nop
 10002f9:	90                   	nop
 10002fa:	90                   	nop
 10002fb:	90                   	nop
 10002fc:	90                   	nop
 10002fd:	90                   	nop
 10002fe:	90                   	nop
 10002ff:	90                   	nop
 1000300:	90                   	nop
 1000301:	90                   	nop
 1000302:	90                   	nop
 1000303:	90                   	nop
 1000304:	90                   	nop
 1000305:	90                   	nop
 1000306:	90                   	nop
 1000307:	90                   	nop
 1000308:	90                   	nop
 1000309:	90                   	nop
 100030a:	90                   	nop
 100030b:	90                   	nop
 100030c:	90                   	nop
 100030d:	90                   	nop
 100030e:	90                   	nop
 100030f:	90                   	nop
 1000310:	90                   	nop
 1000311:	90                   	nop
 1000312:	90                   	nop
 1000313:	90                   	nop
 1000314:	90                   	nop
 1000315:	90                   	nop
 1000316:	90                   	nop
 1000317:	90                   	nop
 1000318:	90                   	nop
 1000319:	90                   	nop
 100031a:	90                   	nop
 100031b:	90                   	nop
 100031c:	90                   	nop
 100031d:	90                   	nop
 100031e:	90                   	nop
 100031f:	90                   	nop
 1000320:	90                   	nop
 1000321:	90                   	nop
 1000322:	90                   	nop
 1000323:	90                   	nop
 1000324:	90                   	nop
 1000325:	90                   	nop
 1000326:	90                   	nop
 1000327:	90                   	nop
 1000328:	90                   	nop
 1000329:	90                   	nop
 100032a:	90                   	nop
 100032b:	90                   	nop
 100032c:	90                   	nop
 100032d:	90                   	nop
 100032e:	90                   	nop
 100032f:	90                   	nop
 1000330:	90                   	nop
 1000331:	90                   	nop
 1000332:	90                   	nop
 1000333:	90                   	nop
 1000334:	90                   	nop
 1000335:	90                   	nop
 1000336:	90                   	nop
 1000337:	90                   	nop
 1000338:	90                   	nop
 1000339:	90                   	nop
 100033a:	90                   	nop
 100033b:	90                   	nop
 100033c:	90                   	nop
 100033d:	90                   	nop
 100033e:	90                   	nop
 100033f:	90                   	nop
 1000340:	90                   	nop
 1000341:	90                   	nop
 1000342:	90                   	nop
 1000343:	90                   	nop
 1000344:	90                   	nop
 1000345:	90                   	nop
 1000346:	90                   	nop
 1000347:	90                   	nop
 1000348:	90                   	nop
 1000349:	90                   	nop
 100034a:	90                   	nop
 100034b:	90                   	nop
 100034c:	90                   	nop
 100034d:	90                   	nop
 100034e:	90                   	nop
 100034f:	90                   	nop
 1000350:	90                   	nop
 1000351:	90                   	nop
 1000352:	90                   	nop
 1000353:	90                   	nop
 1000354:	90                   	nop
 1000355:	90                   	nop
 1000356:	90                   	nop
 1000357:	90                   	nop
 1000358:	90                   	nop
 1000359:	90                   	nop
 100035a:	90                   	nop
 100035b:	90                   	nop
 100035c:	90                   	nop
 100035d:	90                   	nop
 100035e:	90                   	nop
 100035f:	90                   	nop
 1000360:	90                   	nop
 1000361:	90                   	nop
 1000362:	90                   	nop
 1000363:	90                   	nop
 1000364:	90                   	nop
 1000365:	90                   	nop
 1000366:	90                   	nop
 1000367:	90                   	nop
 1000368:	90                   	nop
 1000369:	90                   	nop
 100036a:	90                   	nop
 100036b:	90                   	nop
 100036c:	90                   	nop
 100036d:	90                   	nop
 100036e:	90                   	nop
 100036f:	90                   	nop
 1000370:	90                   	nop
 1000371:	90                   	nop
 1000372:	90                   	nop
 1000373:	90                   	nop
 1000374:	90                   	nop
 1000375:	90                   	nop
 1000376:	90                   	nop
 1000377:	90                   	nop
 1000378:	90                   	nop
 1000379:	90                   	nop
 100037a:	90                   	nop
 100037b:	90                   	nop
 100037c:	90                   	nop
 100037d:	90                   	nop
 100037e:	90                   	nop
 100037f:	90                   	nop
 1000380:	90                   	nop
 1000381:	90                   	nop
 1000382:	90                   	nop
 1000383:	90                   	nop
 1000384:	90                   	nop
 1000385:	90                   	nop
 1000386:	90                   	nop
 1000387:	90                   	nop
 1000388:	90                   	nop
 1000389:	90                   	nop
 100038a:	90                   	nop
 100038b:	90                   	nop
 100038c:	90                   	nop
 100038d:	90                   	nop
 100038e:	90                   	nop
 100038f:	90                   	nop
 1000390:	90                   	nop
 1000391:	90                   	nop
 1000392:	90                   	nop
 1000393:	90                   	nop
 1000394:	90                   	nop
 1000395:	90                   	nop
 1000396:	90                   	nop
 1000397:	90                   	nop
 1000398:	90                   	nop
 1000399:	90                   	nop
 100039a:	90                   	nop
 100039b:	90                   	nop
 100039c:	90                   	nop
 100039d:	90                   	nop
 100039e:	90                   	nop
 100039f:	90                   	nop
 10003a0:	90                   	nop
 10003a1:	90                   	nop
 10003a2:	90                   	nop
 10003a3:	90                   	nop
 10003a4:	90                   	nop
 10003a5:	90                   	nop
 10003a6:	90                   	nop
 10003a7:	90                   	nop
 10003a8:	90                   	nop
 10003a9:	90                   	nop
 10003aa:	90                   	nop
 10003ab:	90                   	nop
 10003ac:	90                   	nop
 10003ad:	90                   	nop
 10003ae:	90                   	nop
 10003af:	90                   	nop
 10003b0:	90                   	nop
 10003b1:	90                   	nop
 10003b2:	90                   	nop
 10003b3:	90                   	nop
 10003b4:	90                   	nop
 10003b5:	90                   	nop
 10003b6:	90                   	nop
 10003b7:	90                   	nop
 10003b8:	90                   	nop
 10003b9:	90                   	nop
 10003ba:	90                   	nop
 10003bb:	90                   	nop
 10003bc:	90                   	nop
 10003bd:	90                   	nop
 10003be:	90                   	nop
 10003bf:	90                   	nop
 10003c0:	90                   	nop
 10003c1:	90                   	nop
 10003c2:	90                   	nop
 10003c3:	90                   	nop
 10003c4:	90                   	nop
 10003c5:	90                   	nop
 10003c6:	90                   	nop
 10003c7:	90                   	nop
 10003c8:	90                   	nop
 10003c9:	90                   	nop
 10003ca:	90                   	nop
 10003cb:	90                   	nop
 10003cc:	90                   	nop
 10003cd:	90                   	nop
 10003ce:	90                   	nop
 10003cf:	90                   	nop
 10003d0:	90                   	nop
 10003d1:	90                   	nop
 10003d2:	90                   	nop
 10003d3:	90                   	nop
 10003d4:	90                   	nop
 10003d5:	90                   	nop
 10003d6:	90                   	nop
 10003d7:	90                   	nop
 10003d8:	90                   	nop
 10003d9:	90                   	nop
 10003da:	90                   	nop
 10003db:	90                   	nop
 10003dc:	90                   	nop
 10003dd:	90                   	nop
 10003de:	90                   	nop
 10003df:	90                   	nop
 10003e0:	90                   	nop
 10003e1:	90                   	nop
 10003e2:	90                   	nop
 10003e3:	90                   	nop
 10003e4:	90                   	nop
 10003e5:	90                   	nop
 10003e6:	90                   	nop
 10003e7:	90                   	nop
 10003e8:	90                   	nop
 10003e9:	90                   	nop
 10003ea:	90                   	nop
 10003eb:	90                   	nop
 10003ec:	90                   	nop
 10003ed:	90                   	nop
 10003ee:	90                   	nop
 10003ef:	90                   	nop
 10003f0:	90                   	nop
 10003f1:	90                   	nop
 10003f2:	90                   	nop
 10003f3:	90                   	nop
 10003f4:	90                   	nop
 10003f5:	90                   	nop
 10003f6:	90                   	nop
 10003f7:	90                   	nop
 10003f8:	90                   	nop
 10003f9:	90                   	nop
 10003fa:	90                   	nop
 10003fb:	90                   	nop
 10003fc:	90                   	nop
 10003fd:	90                   	nop
 10003fe:	90                   	nop
 10003ff:	90                   	nop
 1000400:	90                   	nop
 1000401:	90                   	nop
 1000402:	90                   	nop
 1000403:	90                   	nop
 1000404:	90                   	nop
 1000405:	90                   	nop
 1000406:	90                   	nop
 1000407:	90                   	nop
 1000408:	90                   	nop
 1000409:	90                   	nop
 100040a:	90                   	nop
 100040b:	90                   	nop
 100040c:	90                   	nop
 100040d:	90                   	nop
 100040e:	90                   	nop
 100040f:	90                   	nop
 1000410:	90                   	nop
 1000411:	90                   	nop
 1000412:	90                   	nop
 1000413:	90                   	nop
 1000414:	90                   	nop
 1000415:	90                   	nop
 1000416:	90                   	nop
 1000417:	90                   	nop
 1000418:	90                   	nop
 1000419:	90                   	nop
 100041a:	90                   	nop
 100041b:	90                   	nop
 100041c:	90                   	nop
 100041d:	90                   	nop
 100041e:	90                   	nop
 100041f:	90                   	nop
 1000420:	90                   	nop
 1000421:	90                   	nop
 1000422:	90                   	nop
 1000423:	90                   	nop
 1000424:	90                   	nop
 1000425:	90                   	nop
 1000426:	90                   	nop
 1000427:	90                   	nop
 1000428:	90                   	nop
 1000429:	90                   	nop
 100042a:	90                   	nop
 100042b:	90                   	nop
 100042c:	90                   	nop
 100042d:	90                   	nop
 100042e:	90                   	nop
 100042f:	90                   	nop
 1000430:	90                   	nop
 1000431:	90                   	nop
 1000432:	90                   	nop
 1000433:	90                   	nop
 1000434:	90                   	nop
 1000435:	90                   	nop
 1000436:	90                   	nop
 1000437:	90                   	nop
 1000438:	90                   	nop
 1000439:	90                   	nop
 100043a:	90                   	nop
 100043b:	90                   	nop
 100043c:	90                   	nop
 100043d:	90                   	nop
 100043e:	90                   	nop
 100043f:	90                   	nop
 1000440:	90                   	nop
 1000441:	90                   	nop
 1000442:	90                   	nop
 1000443:	90                   	nop
 1000444:	90                   	nop
 1000445:	90                   	nop
 1000446:	90                   	nop
 1000447:	90                   	nop
 1000448:	90                   	nop
 1000449:	90                   	nop
 100044a:	90                   	nop
 100044b:	90                   	nop
 100044c:	90                   	nop
 100044d:	90                   	nop
 100044e:	90                   	nop
 100044f:	90                   	nop
 1000450:	90                   	nop
 1000451:	90                   	nop
 1000452:	90                   	nop
 1000453:	90                   	nop
 1000454:	90                   	nop
 1000455:	90                   	nop
 1000456:	90                   	nop
 1000457:	90                   	nop
 1000458:	90                   	nop
 1000459:	90                   	nop
 100045a:	90                   	nop
 100045b:	90                   	nop
 100045c:	90                   	nop
 100045d:	90                   	nop
 100045e:	90                   	nop
 100045f:	90                   	nop
 1000460:	90                   	nop
 1000461:	90                   	nop
 1000462:	90                   	nop
 1000463:	90                   	nop
 1000464:	90                   	nop
 1000465:	90                   	nop
 1000466:	90                   	nop
 1000467:	90                   	nop
 1000468:	90                   	nop
 1000469:	90                   	nop
 100046a:	90                   	nop
 100046b:	90                   	nop
 100046c:	90                   	nop
 100046d:	90                   	nop
 100046e:	90                   	nop
 100046f:	90                   	nop
 1000470:	90                   	nop
 1000471:	90                   	nop
 1000472:	90                   	nop
 1000473:	90                   	nop
 1000474:	90                   	nop
 1000475:	90                   	nop
 1000476:	90                   	nop
 1000477:	90                   	nop
 1000478:	90                   	nop
 1000479:	90                   	nop
 100047a:	90                   	nop
 100047b:	90                   	nop
 100047c:	90                   	nop
 100047d:	90                   	nop
 100047e:	90                   	nop
 100047f:	90                   	nop
 1000480:	90                   	nop
 1000481:	90                   	nop
 1000482:	90                   	nop
 1000483:	90                   	nop
 1000484:	90                   	nop
 1000485:	90                   	nop
 1000486:	90                   	nop
 1000487:	90                   	nop
 1000488:	90                   	nop
 1000489:	90                   	nop
 100048a:	90                   	nop
 100048b:	90                   	nop
 100048c:	90                   	nop
 100048d:	90                   	nop
 100048e:	90                   	nop
 100048f:	90                   	nop
 1000490:	90                   	nop
 1000491:	90                   	nop
 1000492:	90                   	nop
 1000493:	90                   	nop
 1000494:	90                   	nop
 1000495:	90                   	nop
 1000496:	90                   	nop
 1000497:	90                   	nop
 1000498:	90                   	nop
 1000499:	90                   	nop
 100049a:	90                   	nop
 100049b:	90                   	nop
 100049c:	90                   	nop
 100049d:	90                   	nop
 100049e:	90                   	nop
 100049f:	90                   	nop
 10004a0:	90                   	nop
 10004a1:	90                   	nop
 10004a2:	90                   	nop
 10004a3:	90                   	nop
 10004a4:	90                   	nop
 10004a5:	90                   	nop
 10004a6:	90                   	nop
 10004a7:	90                   	nop
 10004a8:	90                   	nop
 10004a9:	90                   	nop
 10004aa:	90                   	nop
 10004ab:	90                   	nop
 10004ac:	90                   	nop
 10004ad:	90                   	nop
 10004ae:	90                   	nop
 10004af:	90                   	nop
 10004b0:	90                   	nop
 10004b1:	90                   	nop
 10004b2:	90                   	nop
 10004b3:	90                   	nop
 10004b4:	90                   	nop
 10004b5:	90                   	nop
 10004b6:	90                   	nop
 10004b7:	90                   	nop
 10004b8:	90                   	nop
 10004b9:	90                   	nop
 10004ba:	90                   	nop
 10004bb:	90                   	nop
 10004bc:	90                   	nop
 10004bd:	90                   	nop
 10004be:	90                   	nop
 10004bf:	90                   	nop
 10004c0:	90                   	nop
 10004c1:	90                   	nop
 10004c2:	90                   	nop
 10004c3:	90                   	nop
 10004c4:	90                   	nop
 10004c5:	90                   	nop
 10004c6:	90                   	nop
 10004c7:	90                   	nop
 10004c8:	90                   	nop
 10004c9:	90                   	nop
 10004ca:	90                   	nop
 10004cb:	90                   	nop
 10004cc:	90                   	nop
 10004cd:	90                   	nop
 10004ce:	90                   	nop
 10004cf:	90                   	nop
 10004d0:	90                   	nop
 10004d1:	90                   	nop
 10004d2:	90                   	nop
 10004d3:	90                   	nop
 10004d4:	90                   	nop
 10004d5:	90                   	nop
 10004d6:	90                   	nop
 10004d7:	90                   	nop
 10004d8:	90                   	nop
 10004d9:	90                   	nop
 10004da:	90                   	nop
 10004db:	90                   	nop
 10004dc:	90                   	nop
 10004dd:	90                   	nop
 10004de:	90                   	nop
 10004df:	90                   	nop
 10004e0:	90                   	nop
 10004e1:	90                   	nop
 10004e2:	90                   	nop
 10004e3:	90                   	nop
 10004e4:	90                   	nop
 10004e5:	90                   	nop
 10004e6:	90                   	nop
 10004e7:	90                   	nop
 10004e8:	90                   	nop
 10004e9:	90                   	nop
 10004ea:	90                   	nop
 10004eb:	90                   	nop
 10004ec:	90                   	nop
 10004ed:	90                   	nop
 10004ee:	90                   	nop
 10004ef:	90                   	nop
 10004f0:	90                   	nop
 10004f1:	90                   	nop
 10004f2:	90                   	nop
 10004f3:	90                   	nop
 10004f4:	90                   	nop
 10004f5:	90                   	nop
 10004f6:	90                   	nop
 10004f7:	90                   	nop
 10004f8:	90                   	nop
 10004f9:	90                   	nop
 10004fa:	90                   	nop
 10004fb:	90                   	nop
 10004fc:	90                   	nop
 10004fd:	90                   	nop
 10004fe:	90                   	nop
 10004ff:	90                   	nop
 1000500:	90                   	nop
 1000501:	90                   	nop
 1000502:	90                   	nop
 1000503:	90                   	nop
 1000504:	90                   	nop
 1000505:	90                   	nop
 1000506:	90                   	nop
 1000507:	90                   	nop
 1000508:	90                   	nop
 1000509:	90                   	nop
 100050a:	90                   	nop
 100050b:	90                   	nop
 100050c:	90                   	nop
 100050d:	90                   	nop
 100050e:	90                   	nop
 100050f:	90                   	nop
 1000510:	90                   	nop
 1000511:	90                   	nop
 1000512:	90                   	nop
 1000513:	90                   	nop
 1000514:	90                   	nop
 1000515:	90                   	nop
 1000516:	90                   	nop
 1000517:	90                   	nop
 1000518:	90                   	nop
 1000519:	90                   	nop
 100051a:	90                   	nop
 100051b:	90                   	nop
 100051c:	90                   	nop
 100051d:	90                   	nop
 100051e:	90                   	nop
 100051f:	90                   	nop
 1000520:	90                   	nop
 1000521:	90                   	nop
 1000522:	90                   	nop
 1000523:	90                   	nop
 1000524:	90                   	nop
 1000525:	90                   	nop
 1000526:	90                   	nop
 1000527:	90                   	nop
 1000528:	90                   	nop
 1000529:	90                   	nop
 100052a:	90                   	nop
 100052b:	90                   	nop
 100052c:	90                   	nop
 100052d:	90                   	nop
 100052e:	90                   	nop
 100052f:	90                   	nop
 1000530:	90                   	nop
 1000531:	90                   	nop
 1000532:	90                   	nop
 1000533:	90                   	nop
 1000534:	90                   	nop
 1000535:	90                   	nop
 1000536:	90                   	nop
 1000537:	90                   	nop
 1000538:	90                   	nop
 1000539:	90                   	nop
 100053a:	90                   	nop
 100053b:	90                   	nop
 100053c:	90                   	nop
 100053d:	90                   	nop
 100053e:	90                   	nop
 100053f:	90                   	nop
 1000540:	90                   	nop
 1000541:	90                   	nop
 1000542:	90                   	nop
 1000543:	90                   	nop
 1000544:	90                   	nop
 1000545:	90                   	nop
 1000546:	90                   	nop
 1000547:	90                   	nop
 1000548:	90                   	nop
 1000549:	90                   	nop
 100054a:	90                   	nop
 100054b:	90                   	nop
 100054c:	90                   	nop
 100054d:	90                   	nop
 100054e:	90                   	nop
 100054f:	90                   	nop
 1000550:	90                   	nop
 1000551:	90                   	nop
 1000552:	90                   	nop
 1000553:	90                   	nop
 1000554:	90                   	nop
 1000555:	90                   	nop
 1000556:	90                   	nop
 1000557:	90                   	nop
 1000558:	90                   	nop
 1000559:	90                   	nop
 100055a:	90                   	nop
 100055b:	90                   	nop
 100055c:	90                   	nop
 100055d:	90                   	nop
 100055e:	90                   	nop
 100055f:	90                   	nop
 1000560:	90                   	nop
 1000561:	90                   	nop
 1000562:	90                   	nop
 1000563:	90                   	nop
 1000564:	90                   	nop
 1000565:	90                   	nop
 1000566:	90                   	nop
 1000567:	90                   	nop
 1000568:	90                   	nop
 1000569:	90                   	nop
 100056a:	90                   	nop
 100056b:	90                   	nop
 100056c:	90                   	nop
 100056d:	90                   	nop
 100056e:	90                   	nop
 100056f:	90                   	nop
 1000570:	90                   	nop
 1000571:	90                   	nop
 1000572:	90                   	nop
 1000573:	90                   	nop
 1000574:	90                   	nop
 1000575:	90                   	nop
 1000576:	90                   	nop
 1000577:	90                   	nop
 1000578:	90                   	nop
 1000579:	90                   	nop
 100057a:	90                   	nop
 100057b:	90                   	nop
 100057c:	90                   	nop
 100057d:	90                   	nop
 100057e:	90                   	nop
 100057f:	90                   	nop
 1000580:	90                   	nop
 1000581:	90                   	nop
 1000582:	90                   	nop
 1000583:	90                   	nop
 1000584:	90                   	nop
 1000585:	90                   	nop
 1000586:	90                   	nop
 1000587:	90                   	nop
 1000588:	90                   	nop
 1000589:	90                   	nop
 100058a:	90                   	nop
 100058b:	90                   	nop
 100058c:	90                   	nop
 100058d:	90                   	nop
 100058e:	90                   	nop
 100058f:	90                   	nop
 1000590:	90                   	nop
 1000591:	90                   	nop
 1000592:	90                   	nop
 1000593:	90                   	nop
 1000594:	90                   	nop
 1000595:	90                   	nop
 1000596:	90                   	nop
 1000597:	90                   	nop
 1000598:	90                   	nop
 1000599:	90                   	nop
 100059a:	90                   	nop
 100059b:	90                   	nop
 100059c:	90                   	nop
 100059d:	90                   	nop
 100059e:	90                   	nop
 100059f:	90                   	nop
 10005a0:	90                   	nop
 10005a1:	90                   	nop
 10005a2:	90                   	nop
 10005a3:	90                   	nop
 10005a4:	90                   	nop
 10005a5:	90                   	nop
 10005a6:	90                   	nop
 10005a7:	90                   	nop
 10005a8:	90                   	nop
 10005a9:	90                   	nop
 10005aa:	90                   	nop
 10005ab:	90                   	nop
 10005ac:	90                   	nop
 10005ad:	90                   	nop
 10005ae:	90                   	nop
 10005af:	90                   	nop
 10005b0:	90                   	nop
 10005b1:	90                   	nop
 10005b2:	90                   	nop
 10005b3:	90                   	nop
 10005b4:	90                   	nop
 10005b5:	90                   	nop
 10005b6:	90                   	nop
 10005b7:	90                   	nop
 10005b8:	90                   	nop
 10005b9:	90                   	nop
 10005ba:	90                   	nop
 10005bb:	90                   	nop
 10005bc:	90                   	nop
 10005bd:	90                   	nop
 10005be:	90                   	nop
 10005bf:	90                   	nop
 10005c0:	90                   	nop
 10005c1:	90                   	nop
 10005c2:	90                   	nop
 10005c3:	90                   	nop
 10005c4:	90                   	nop
 10005c5:	90                   	nop
 10005c6:	90                   	nop
 10005c7:	90                   	nop
 10005c8:	90                   	nop
 10005c9:	90                   	nop
 10005ca:	90                   	nop
 10005cb:	90                   	nop
 10005cc:	90                   	nop
 10005cd:	90                   	nop
 10005ce:	90                   	nop
 10005cf:	90                   	nop
 10005d0:	90                   	nop
 10005d1:	90                   	nop
 10005d2:	90                   	nop
 10005d3:	90                   	nop
 10005d4:	90                   	nop
 10005d5:	90                   	nop
 10005d6:	90                   	nop
 10005d7:	90                   	nop
 10005d8:	90                   	nop
 10005d9:	90                   	nop
 10005da:	90                   	nop
 10005db:	90                   	nop
 10005dc:	90                   	nop
 10005dd:	90                   	nop
 10005de:	90                   	nop
 10005df:	90                   	nop
 10005e0:	90                   	nop
 10005e1:	90                   	nop
 10005e2:	90                   	nop
 10005e3:	90                   	nop
 10005e4:	90                   	nop
 10005e5:	90                   	nop
 10005e6:	90                   	nop
 10005e7:	90                   	nop
 10005e8:	90                   	nop
 10005e9:	90                   	nop
 10005ea:	90                   	nop
 10005eb:	90                   	nop
 10005ec:	90                   	nop
 10005ed:	90                   	nop
 10005ee:	90                   	nop
 10005ef:	90                   	nop
 10005f0:	90                   	nop
 10005f1:	90                   	nop
 10005f2:	90                   	nop
 10005f3:	90                   	nop
 10005f4:	90                   	nop
 10005f5:	90                   	nop
 10005f6:	90                   	nop
 10005f7:	90                   	nop
 10005f8:	90                   	nop
 10005f9:	90                   	nop
 10005fa:	90                   	nop
 10005fb:	90                   	nop
 10005fc:	90                   	nop
 10005fd:	90                   	nop
 10005fe:	90                   	nop
 10005ff:	90                   	nop
 1000600:	90                   	nop
 1000601:	90                   	nop
 1000602:	90                   	nop
 1000603:	90                   	nop
 1000604:	90                   	nop
 1000605:	90                   	nop
 1000606:	90                   	nop
 1000607:	90                   	nop
 1000608:	90                   	nop
 1000609:	90                   	nop
 100060a:	90                   	nop
 100060b:	90                   	nop
 100060c:	90                   	nop
 100060d:	90                   	nop
 100060e:	90                   	nop
 100060f:	90                   	nop
 1000610:	90                   	nop
 1000611:	90                   	nop
 1000612:	90                   	nop
 1000613:	90                   	nop
 1000614:	90                   	nop
 1000615:	90                   	nop
 1000616:	90                   	nop
 1000617:	90                   	nop
 1000618:	90                   	nop
 1000619:	90                   	nop
 100061a:	90                   	nop
 100061b:	90                   	nop
 100061c:	90                   	nop
 100061d:	90                   	nop
 100061e:	90                   	nop
 100061f:	90                   	nop
 1000620:	90                   	nop
 1000621:	90                   	nop
 1000622:	90                   	nop
 1000623:	90                   	nop
 1000624:	90                   	nop
 1000625:	90                   	nop
 1000626:	90                   	nop
 1000627:	90                   	nop
 1000628:	90                   	nop
 1000629:	90                   	nop
 100062a:	90                   	nop
 100062b:	90                   	nop
 100062c:	90                   	nop
 100062d:	90                   	nop
 100062e:	90                   	nop
 100062f:	90                   	nop
 1000630:	90                   	nop
 1000631:	90                   	nop
 1000632:	90                   	nop
 1000633:	90                   	nop
 1000634:	90                   	nop
 1000635:	90                   	nop
 1000636:	90                   	nop
 1000637:	90                   	nop
 1000638:	90                   	nop
 1000639:	90                   	nop
 100063a:	90                   	nop
 100063b:	90                   	nop
 100063c:	90                   	nop
 100063d:	90                   	nop
 100063e:	90                   	nop
 100063f:	90                   	nop
 1000640:	90                   	nop
 1000641:	90                   	nop
 1000642:	90                   	nop
 1000643:	90                   	nop
 1000644:	90                   	nop
 1000645:	90                   	nop
 1000646:	90                   	nop
 1000647:	90                   	nop
 1000648:	90                   	nop
 1000649:	90                   	nop
 100064a:	90                   	nop
 100064b:	90                   	nop
 100064c:	90                   	nop
 100064d:	90                   	nop
 100064e:	90                   	nop
 100064f:	90                   	nop
 1000650:	90                   	nop
 1000651:	90                   	nop
 1000652:	90                   	nop
 1000653:	90                   	nop
 1000654:	90                   	nop
 1000655:	90                   	nop
 1000656:	90                   	nop
 1000657:	90                   	nop
 1000658:	90                   	nop
 1000659:	90                   	nop
 100065a:	90                   	nop
 100065b:	90                   	nop
 100065c:	90                   	nop
 100065d:	90                   	nop
 100065e:	90                   	nop
 100065f:	90                   	nop
 1000660:	90                   	nop
 1000661:	90                   	nop
 1000662:	90                   	nop
 1000663:	90                   	nop
 1000664:	90                   	nop
 1000665:	90                   	nop
 1000666:	90                   	nop
 1000667:	90                   	nop
 1000668:	90                   	nop
 1000669:	90                   	nop
 100066a:	90                   	nop
 100066b:	90                   	nop
 100066c:	90                   	nop
 100066d:	90                   	nop
 100066e:	90                   	nop
 100066f:	90                   	nop
 1000670:	90                   	nop
 1000671:	90                   	nop
 1000672:	90                   	nop
 1000673:	90                   	nop
 1000674:	90                   	nop
 1000675:	90                   	nop
 1000676:	90                   	nop
 1000677:	90                   	nop
 1000678:	90                   	nop
 1000679:	90                   	nop
 100067a:	90                   	nop
 100067b:	90                   	nop
 100067c:	90                   	nop
 100067d:	90                   	nop
 100067e:	90                   	nop
 100067f:	90                   	nop
 1000680:	90                   	nop
 1000681:	90                   	nop
 1000682:	90                   	nop
 1000683:	90                   	nop
 1000684:	90                   	nop
 1000685:	90                   	nop
 1000686:	90                   	nop
 1000687:	90                   	nop
 1000688:	90                   	nop
 1000689:	90                   	nop
 100068a:	90                   	nop
 100068b:	90                   	nop
 100068c:	90                   	nop
 100068d:	90                   	nop
 100068e:	90                   	nop
 100068f:	90                   	nop
 1000690:	90                   	nop
 1000691:	90                   	nop
 1000692:	90                   	nop
 1000693:	90                   	nop
 1000694:	90                   	nop
 1000695:	90                   	nop
 1000696:	90                   	nop
 1000697:	90                   	nop
 1000698:	90                   	nop
 1000699:	90                   	nop
 100069a:	90                   	nop
 100069b:	90                   	nop
 100069c:	90                   	nop
 100069d:	90                   	nop
 100069e:	90                   	nop
 100069f:	90                   	nop
 10006a0:	90                   	nop
 10006a1:	90                   	nop
 10006a2:	90                   	nop
 10006a3:	90                   	nop
 10006a4:	90                   	nop
 10006a5:	90                   	nop
 10006a6:	90                   	nop
 10006a7:	90                   	nop
 10006a8:	90                   	nop
 10006a9:	90                   	nop
 10006aa:	90                   	nop
 10006ab:	90                   	nop
 10006ac:	90                   	nop
 10006ad:	90                   	nop
 10006ae:	90                   	nop
 10006af:	90                   	nop
 10006b0:	90                   	nop
 10006b1:	90                   	nop
 10006b2:	90                   	nop
 10006b3:	90                   	nop
 10006b4:	90                   	nop
 10006b5:	90                   	nop
 10006b6:	90                   	nop
 10006b7:	90                   	nop
 10006b8:	90                   	nop
 10006b9:	90                   	nop
 10006ba:	90                   	nop
 10006bb:	90                   	nop
 10006bc:	90                   	nop
 10006bd:	90                   	nop
 10006be:	90                   	nop
 10006bf:	90                   	nop
 10006c0:	90                   	nop
 10006c1:	90                   	nop
 10006c2:	90                   	nop
 10006c3:	90                   	nop
 10006c4:	90                   	nop
 10006c5:	90                   	nop
 10006c6:	90                   	nop
 10006c7:	90                   	nop
 10006c8:	90                   	nop
 10006c9:	90                   	nop
 10006ca:	90                   	nop
 10006cb:	90                   	nop
 10006cc:	90                   	nop
 10006cd:	90                   	nop
 10006ce:	90                   	nop
 10006cf:	90                   	nop
 10006d0:	90                   	nop
 10006d1:	90                   	nop
 10006d2:	90                   	nop
 10006d3:	90                   	nop
 10006d4:	90                   	nop
 10006d5:	90                   	nop
 10006d6:	90                   	nop
 10006d7:	90                   	nop
 10006d8:	90                   	nop
 10006d9:	90                   	nop
 10006da:	90                   	nop
 10006db:	90                   	nop
 10006dc:	90                   	nop
 10006dd:	90                   	nop
 10006de:	90                   	nop
 10006df:	90                   	nop
 10006e0:	90                   	nop
 10006e1:	90                   	nop
 10006e2:	90                   	nop
 10006e3:	90                   	nop
 10006e4:	90                   	nop
 10006e5:	90                   	nop
 10006e6:	90                   	nop
 10006e7:	90                   	nop
 10006e8:	90                   	nop
 10006e9:	90                   	nop
 10006ea:	90                   	nop
 10006eb:	90                   	nop
 10006ec:	90                   	nop
 10006ed:	90                   	nop
 10006ee:	90                   	nop
 10006ef:	90                   	nop
 10006f0:	90                   	nop
 10006f1:	90                   	nop
 10006f2:	90                   	nop
 10006f3:	90                   	nop
 10006f4:	90                   	nop
 10006f5:	90                   	nop
 10006f6:	90                   	nop
 10006f7:	90                   	nop
 10006f8:	90                   	nop
 10006f9:	90                   	nop
 10006fa:	90                   	nop
 10006fb:	90                   	nop
 10006fc:	90                   	nop
 10006fd:	90                   	nop
 10006fe:	90                   	nop
 10006ff:	90                   	nop
 1000700:	90                   	nop
 1000701:	90                   	nop
 1000702:	90                   	nop
 1000703:	90                   	nop
 1000704:	90                   	nop
 1000705:	90                   	nop
 1000706:	90                   	nop
 1000707:	90                   	nop
 1000708:	90                   	nop
 1000709:	90                   	nop
 100070a:	90                   	nop
 100070b:	90                   	nop
 100070c:	90                   	nop
 100070d:	90                   	nop
 100070e:	90                   	nop
 100070f:	90                   	nop
 1000710:	90                   	nop
 1000711:	90                   	nop
 1000712:	90                   	nop
 1000713:	90                   	nop
 1000714:	90                   	nop
 1000715:	90                   	nop
 1000716:	90                   	nop
 1000717:	90                   	nop
 1000718:	90                   	nop
 1000719:	90                   	nop
 100071a:	90                   	nop
 100071b:	90                   	nop
 100071c:	90                   	nop
 100071d:	90                   	nop
 100071e:	90                   	nop
 100071f:	90                   	nop
 1000720:	90                   	nop
 1000721:	90                   	nop
 1000722:	90                   	nop
 1000723:	90                   	nop
 1000724:	90                   	nop
 1000725:	90                   	nop
 1000726:	90                   	nop
 1000727:	90                   	nop
 1000728:	90                   	nop
 1000729:	90                   	nop
 100072a:	90                   	nop
 100072b:	90                   	nop
 100072c:	90                   	nop
 100072d:	90                   	nop
 100072e:	90                   	nop
 100072f:	90                   	nop
 1000730:	90                   	nop
 1000731:	90                   	nop
 1000732:	90                   	nop
 1000733:	90                   	nop
 1000734:	90                   	nop
 1000735:	90                   	nop
 1000736:	90                   	nop
 1000737:	90                   	nop
 1000738:	90                   	nop
 1000739:	90                   	nop
 100073a:	90                   	nop
 100073b:	90                   	nop
 100073c:	90                   	nop
 100073d:	90                   	nop
 100073e:	90                   	nop
 100073f:	90                   	nop
 1000740:	90                   	nop
 1000741:	90                   	nop
 1000742:	90                   	nop
 1000743:	90                   	nop
 1000744:	90                   	nop
 1000745:	90                   	nop
 1000746:	90                   	nop
 1000747:	90                   	nop
 1000748:	90                   	nop
 1000749:	90                   	nop
 100074a:	90                   	nop
 100074b:	90                   	nop
 100074c:	90                   	nop
 100074d:	90                   	nop
 100074e:	90                   	nop
 100074f:	90                   	nop
 1000750:	90                   	nop
 1000751:	90                   	nop
 1000752:	90                   	nop
 1000753:	90                   	nop
 1000754:	90                   	nop
 1000755:	90                   	nop
 1000756:	90                   	nop
 1000757:	90                   	nop
 1000758:	90                   	nop
 1000759:	90                   	nop
 100075a:	90                   	nop
 100075b:	90                   	nop
 100075c:	90                   	nop
 100075d:	90                   	nop
 100075e:	90                   	nop
 100075f:	90                   	nop
 1000760:	90                   	nop
 1000761:	90                   	nop
 1000762:	90                   	nop
 1000763:	90                   	nop
 1000764:	90                   	nop
 1000765:	90                   	nop
 1000766:	90                   	nop
 1000767:	90                   	nop
 1000768:	90                   	nop
 1000769:	90                   	nop
 100076a:	90                   	nop
 100076b:	90                   	nop
 100076c:	90                   	nop
 100076d:	90                   	nop
 100076e:	90                   	nop
 100076f:	90                   	nop
 1000770:	90                   	nop
 1000771:	90                   	nop
 1000772:	90                   	nop
 1000773:	90                   	nop
 1000774:	90                   	nop
 1000775:	90                   	nop
 1000776:	90                   	nop
 1000777:	90                   	nop
 1000778:	90                   	nop
 1000779:	90                   	nop
 100077a:	90                   	nop
 100077b:	90                   	nop
 100077c:	90                   	nop
 100077d:	90                   	nop
 100077e:	90                   	nop
 100077f:	90                   	nop
 1000780:	90                   	nop
 1000781:	90                   	nop
 1000782:	90                   	nop
 1000783:	90                   	nop
 1000784:	90                   	nop
 1000785:	90                   	nop
 1000786:	90                   	nop
 1000787:	90                   	nop
 1000788:	90                   	nop
 1000789:	90                   	nop
 100078a:	90                   	nop
 100078b:	90                   	nop
 100078c:	90                   	nop
 100078d:	90                   	nop
 100078e:	90                   	nop
 100078f:	90                   	nop
 1000790:	90                   	nop
 1000791:	90                   	nop
 1000792:	90                   	nop
 1000793:	90                   	nop
 1000794:	90                   	nop
 1000795:	90                   	nop
 1000796:	90                   	nop
 1000797:	90                   	nop
 1000798:	90                   	nop
 1000799:	90                   	nop
 100079a:	90                   	nop
 100079b:	90                   	nop
 100079c:	90                   	nop
 100079d:	90                   	nop
 100079e:	90                   	nop
 100079f:	90                   	nop
 10007a0:	90                   	nop
 10007a1:	90                   	nop
 10007a2:	90                   	nop
 10007a3:	90                   	nop
 10007a4:	90                   	nop
 10007a5:	90                   	nop
 10007a6:	90                   	nop
 10007a7:	90                   	nop
 10007a8:	90                   	nop
 10007a9:	90                   	nop
 10007aa:	90                   	nop
 10007ab:	90                   	nop
 10007ac:	90                   	nop
 10007ad:	90                   	nop
 10007ae:	90                   	nop
 10007af:	90                   	nop
 10007b0:	90                   	nop
 10007b1:	90                   	nop
 10007b2:	90                   	nop
 10007b3:	90                   	nop
 10007b4:	90                   	nop
 10007b5:	90                   	nop
 10007b6:	90                   	nop
 10007b7:	90                   	nop
 10007b8:	90                   	nop
 10007b9:	90                   	nop
 10007ba:	90                   	nop
 10007bb:	90                   	nop
 10007bc:	90                   	nop
 10007bd:	90                   	nop
 10007be:	90                   	nop
 10007bf:	90                   	nop
 10007c0:	90                   	nop
 10007c1:	90                   	nop
 10007c2:	90                   	nop
 10007c3:	90                   	nop
 10007c4:	90                   	nop
 10007c5:	90                   	nop
 10007c6:	90                   	nop
 10007c7:	90                   	nop
 10007c8:	90                   	nop
 10007c9:	90                   	nop
 10007ca:	90                   	nop
 10007cb:	90                   	nop
 10007cc:	90                   	nop
 10007cd:	90                   	nop
 10007ce:	90                   	nop
 10007cf:	90                   	nop
 10007d0:	90                   	nop
 10007d1:	90                   	nop
 10007d2:	90                   	nop
 10007d3:	90                   	nop
 10007d4:	90                   	nop
 10007d5:	90                   	nop
 10007d6:	90                   	nop
 10007d7:	90                   	nop
 10007d8:	90                   	nop
 10007d9:	90                   	nop
 10007da:	90                   	nop
 10007db:	90                   	nop
 10007dc:	90                   	nop
 10007dd:	90                   	nop
 10007de:	90                   	nop
 10007df:	90                   	nop
 10007e0:	90                   	nop
 10007e1:	90                   	nop
 10007e2:	90                   	nop
 10007e3:	90                   	nop
 10007e4:	90                   	nop
 10007e5:	90                   	nop
 10007e6:	90                   	nop
 10007e7:	90                   	nop
 10007e8:	90                   	nop
 10007e9:	90                   	nop
 10007ea:	90                   	nop
 10007eb:	90                   	nop
 10007ec:	90                   	nop
 10007ed:	90                   	nop
 10007ee:	90                   	nop
 10007ef:	90                   	nop
 10007f0:	90                   	nop
 10007f1:	90                   	nop
 10007f2:	90                   	nop
 10007f3:	90                   	nop
 10007f4:	90                   	nop
 10007f5:	90                   	nop
 10007f6:	90                   	nop
 10007f7:	90                   	nop
 10007f8:	90                   	nop
 10007f9:	90                   	nop
 10007fa:	90                   	nop
 10007fb:	90                   	nop
 10007fc:	90                   	nop
 10007fd:	90                   	nop
 10007fe:	90                   	nop
 10007ff:	90                   	nop
 1000800:	90                   	nop
 1000801:	90                   	nop
 1000802:	90                   	nop
 1000803:	90                   	nop
 1000804:	90                   	nop
 1000805:	90                   	nop
 1000806:	90                   	nop
 1000807:	90                   	nop
 1000808:	90                   	nop
 1000809:	90                   	nop
 100080a:	90                   	nop
 100080b:	90                   	nop
 100080c:	90                   	nop
 100080d:	90                   	nop
 100080e:	90                   	nop
 100080f:	90                   	nop
 1000810:	90                   	nop
 1000811:	90                   	nop
 1000812:	90                   	nop
 1000813:	90                   	nop
 1000814:	90                   	nop
 1000815:	90                   	nop
 1000816:	90                   	nop
 1000817:	90                   	nop
 1000818:	90                   	nop
 1000819:	90                   	nop
 100081a:	90                   	nop
 100081b:	90                   	nop
 100081c:	90                   	nop
 100081d:	90                   	nop
 100081e:	90                   	nop
 100081f:	90                   	nop
 1000820:	90                   	nop
 1000821:	90                   	nop
 1000822:	90                   	nop
 1000823:	90                   	nop
 1000824:	90                   	nop
 1000825:	90                   	nop
 1000826:	90                   	nop
 1000827:	90                   	nop
 1000828:	90                   	nop
 1000829:	90                   	nop
 100082a:	90                   	nop
 100082b:	90                   	nop
 100082c:	90                   	nop
 100082d:	90                   	nop
 100082e:	90                   	nop
 100082f:	90                   	nop
 1000830:	90                   	nop
 1000831:	90                   	nop
 1000832:	90                   	nop
 1000833:	90                   	nop
 1000834:	90                   	nop
 1000835:	90                   	nop
 1000836:	90                   	nop
 1000837:	90                   	nop
 1000838:	90                   	nop
 1000839:	90                   	nop
 100083a:	90                   	nop
 100083b:	90                   	nop
 100083c:	90                   	nop
 100083d:	90                   	nop
 100083e:	90                   	nop
 100083f:	90                   	nop
 1000840:	90                   	nop
 1000841:	90                   	nop
 1000842:	90                   	nop
 1000843:	90                   	nop
 1000844:	90                   	nop
 1000845:	90                   	nop
 1000846:	90                   	nop
 1000847:	90                   	nop
 1000848:	90                   	nop
 1000849:	90                   	nop
 100084a:	90                   	nop
 100084b:	90                   	nop
 100084c:	90                   	nop
 100084d:	90                   	nop
 100084e:	90                   	nop
 100084f:	90                   	nop
 1000850:	90                   	nop
 1000851:	90                   	nop
 1000852:	90                   	nop
 1000853:	90                   	nop
 1000854:	90                   	nop
 1000855:	90                   	nop
 1000856:	90                   	nop
 1000857:	90                   	nop
 1000858:	90                   	nop
 1000859:	90                   	nop
 100085a:	90                   	nop
 100085b:	90                   	nop
 100085c:	90                   	nop
 100085d:	90                   	nop
 100085e:	90                   	nop
 100085f:	90                   	nop
 1000860:	90                   	nop
 1000861:	90                   	nop
 1000862:	90                   	nop
 1000863:	90                   	nop
 1000864:	90                   	nop
 1000865:	90                   	nop
 1000866:	90                   	nop
 1000867:	90                   	nop
 1000868:	90                   	nop
 1000869:	90                   	nop
 100086a:	90                   	nop
 100086b:	90                   	nop
 100086c:	90                   	nop
 100086d:	90                   	nop
 100086e:	90                   	nop
 100086f:	90                   	nop
 1000870:	90                   	nop
 1000871:	90                   	nop
 1000872:	90                   	nop
 1000873:	90                   	nop
 1000874:	90                   	nop
 1000875:	90                   	nop
 1000876:	90                   	nop
 1000877:	90                   	nop
 1000878:	90                   	nop
 1000879:	90                   	nop
 100087a:	90                   	nop
 100087b:	90                   	nop
 100087c:	90                   	nop
 100087d:	90                   	nop
 100087e:	90                   	nop
 100087f:	90                   	nop
 1000880:	90                   	nop
 1000881:	90                   	nop
 1000882:	90                   	nop
 1000883:	90                   	nop
 1000884:	90                   	nop
 1000885:	90                   	nop
 1000886:	90                   	nop
 1000887:	90                   	nop
 1000888:	90                   	nop
 1000889:	90                   	nop
 100088a:	90                   	nop
 100088b:	90                   	nop
 100088c:	90                   	nop
 100088d:	90                   	nop
 100088e:	90                   	nop
 100088f:	90                   	nop
 1000890:	90                   	nop
 1000891:	90                   	nop
 1000892:	90                   	nop
 1000893:	90                   	nop
 1000894:	90                   	nop
 1000895:	90                   	nop
 1000896:	90                   	nop
 1000897:	90                   	nop
 1000898:	90                   	nop
 1000899:	90                   	nop
 100089a:	90                   	nop
 100089b:	90                   	nop
 100089c:	90                   	nop
 100089d:	90                   	nop
 100089e:	90                   	nop
 100089f:	90                   	nop
 10008a0:	90                   	nop
 10008a1:	90                   	nop
 10008a2:	90                   	nop
 10008a3:	90                   	nop
 10008a4:	90                   	nop
 10008a5:	90                   	nop
 10008a6:	90                   	nop
 10008a7:	90                   	nop
 10008a8:	90                   	nop
 10008a9:	90                   	nop
 10008aa:	90                   	nop
 10008ab:	90                   	nop
 10008ac:	90                   	nop
 10008ad:	90                   	nop
 10008ae:	90                   	nop
 10008af:	90                   	nop
 10008b0:	90                   	nop
 10008b1:	90                   	nop
 10008b2:	90                   	nop
 10008b3:	90                   	nop
 10008b4:	90                   	nop
 10008b5:	90                   	nop
 10008b6:	90                   	nop
 10008b7:	90                   	nop
 10008b8:	90                   	nop
 10008b9:	90                   	nop
 10008ba:	90                   	nop
 10008bb:	90                   	nop
 10008bc:	90                   	nop
 10008bd:	90                   	nop
 10008be:	90                   	nop
 10008bf:	90                   	nop
 10008c0:	90                   	nop
 10008c1:	90                   	nop
 10008c2:	90                   	nop
 10008c3:	90                   	nop
 10008c4:	90                   	nop
 10008c5:	90                   	nop
 10008c6:	90                   	nop
 10008c7:	90                   	nop
 10008c8:	90                   	nop
 10008c9:	90                   	nop
 10008ca:	90                   	nop
 10008cb:	90                   	nop
 10008cc:	90                   	nop
 10008cd:	90                   	nop
 10008ce:	90                   	nop
 10008cf:	90                   	nop
 10008d0:	90                   	nop
 10008d1:	90                   	nop
 10008d2:	90                   	nop
 10008d3:	90                   	nop
 10008d4:	90                   	nop
 10008d5:	90                   	nop
 10008d6:	90                   	nop
 10008d7:	90                   	nop
 10008d8:	90                   	nop
 10008d9:	90                   	nop
 10008da:	90                   	nop
 10008db:	90                   	nop
 10008dc:	90                   	nop
 10008dd:	90                   	nop
 10008de:	90                   	nop
 10008df:	90                   	nop
 10008e0:	90                   	nop
 10008e1:	90                   	nop
 10008e2:	90                   	nop
 10008e3:	90                   	nop
 10008e4:	90                   	nop
 10008e5:	90                   	nop
 10008e6:	90                   	nop
 10008e7:	90                   	nop
 10008e8:	90                   	nop
 10008e9:	90                   	nop
 10008ea:	90                   	nop
 10008eb:	90                   	nop
 10008ec:	90                   	nop
 10008ed:	90                   	nop
 10008ee:	90                   	nop
 10008ef:	90                   	nop
 10008f0:	90                   	nop
 10008f1:	90                   	nop
 10008f2:	90                   	nop
 10008f3:	90                   	nop
 10008f4:	90                   	nop
 10008f5:	90                   	nop
 10008f6:	90                   	nop
 10008f7:	90                   	nop
 10008f8:	90                   	nop
 10008f9:	90                   	nop
 10008fa:	90                   	nop
 10008fb:	90                   	nop
 10008fc:	90                   	nop
 10008fd:	90                   	nop
 10008fe:	90                   	nop
 10008ff:	90                   	nop
 1000900:	90                   	nop
 1000901:	90                   	nop
 1000902:	90                   	nop
 1000903:	90                   	nop
 1000904:	90                   	nop
 1000905:	90                   	nop
 1000906:	90                   	nop
 1000907:	90                   	nop
 1000908:	90                   	nop
 1000909:	90                   	nop
 100090a:	90                   	nop
 100090b:	90                   	nop
 100090c:	90                   	nop
 100090d:	90                   	nop
 100090e:	90                   	nop
 100090f:	90                   	nop
 1000910:	90                   	nop
 1000911:	90                   	nop
 1000912:	90                   	nop
 1000913:	90                   	nop
 1000914:	90                   	nop
 1000915:	90                   	nop
 1000916:	90                   	nop
 1000917:	90                   	nop
 1000918:	90                   	nop
 1000919:	90                   	nop
 100091a:	90                   	nop
 100091b:	90                   	nop
 100091c:	90                   	nop
 100091d:	90                   	nop
 100091e:	90                   	nop
 100091f:	90                   	nop
 1000920:	90                   	nop
 1000921:	90                   	nop
 1000922:	90                   	nop
 1000923:	90                   	nop
 1000924:	90                   	nop
 1000925:	90                   	nop
 1000926:	90                   	nop
 1000927:	90                   	nop
 1000928:	90                   	nop
 1000929:	90                   	nop
 100092a:	90                   	nop
 100092b:	90                   	nop
 100092c:	90                   	nop
 100092d:	90                   	nop
 100092e:	90                   	nop
 100092f:	90                   	nop
 1000930:	90                   	nop
 1000931:	90                   	nop
 1000932:	90                   	nop
 1000933:	90                   	nop
 1000934:	90                   	nop
 1000935:	90                   	nop
 1000936:	90                   	nop
 1000937:	90                   	nop
 1000938:	90                   	nop
 1000939:	90                   	nop
 100093a:	90                   	nop
 100093b:	90                   	nop
 100093c:	90                   	nop
 100093d:	90                   	nop
 100093e:	90                   	nop
 100093f:	90                   	nop
 1000940:	90                   	nop
 1000941:	90                   	nop
 1000942:	90                   	nop
 1000943:	90                   	nop
 1000944:	90                   	nop
 1000945:	90                   	nop
 1000946:	90                   	nop
 1000947:	90                   	nop
 1000948:	90                   	nop
 1000949:	90                   	nop
 100094a:	90                   	nop
 100094b:	90                   	nop
 100094c:	90                   	nop
 100094d:	90                   	nop
 100094e:	90                   	nop
 100094f:	90                   	nop
 1000950:	90                   	nop
 1000951:	90                   	nop
 1000952:	90                   	nop
 1000953:	90                   	nop
 1000954:	90                   	nop
 1000955:	90                   	nop
 1000956:	90                   	nop
 1000957:	90                   	nop
 1000958:	90                   	nop
 1000959:	90                   	nop
 100095a:	90                   	nop
 100095b:	90                   	nop
 100095c:	90                   	nop
 100095d:	90                   	nop
 100095e:	90                   	nop
 100095f:	90                   	nop
 1000960:	90                   	nop
 1000961:	90                   	nop
 1000962:	90                   	nop
 1000963:	90                   	nop
 1000964:	90                   	nop
 1000965:	90                   	nop
 1000966:	90                   	nop
 1000967:	90                   	nop
 1000968:	90                   	nop
 1000969:	90                   	nop
 100096a:	90                   	nop
 100096b:	90                   	nop
 100096c:	90                   	nop
 100096d:	90                   	nop
 100096e:	90                   	nop
 100096f:	90                   	nop
 1000970:	90                   	nop
 1000971:	90                   	nop
 1000972:	90                   	nop
 1000973:	90                   	nop
 1000974:	90                   	nop
 1000975:	90                   	nop
 1000976:	90                   	nop
 1000977:	90                   	nop
 1000978:	90                   	nop
 1000979:	90                   	nop
 100097a:	90                   	nop
 100097b:	90                   	nop
 100097c:	90                   	nop
 100097d:	90                   	nop
 100097e:	90                   	nop
 100097f:	90                   	nop
 1000980:	90                   	nop
 1000981:	90                   	nop
 1000982:	90                   	nop
 1000983:	90                   	nop
 1000984:	90                   	nop
 1000985:	90                   	nop
 1000986:	90                   	nop
 1000987:	90                   	nop
 1000988:	90                   	nop
 1000989:	90                   	nop
 100098a:	90                   	nop
 100098b:	90                   	nop
 100098c:	90                   	nop
 100098d:	90                   	nop
 100098e:	90                   	nop
 100098f:	90                   	nop
 1000990:	90                   	nop
 1000991:	90                   	nop
 1000992:	90                   	nop
 1000993:	90                   	nop
 1000994:	90                   	nop
 1000995:	90                   	nop
 1000996:	90                   	nop
 1000997:	90                   	nop
 1000998:	90                   	nop
 1000999:	90                   	nop
 100099a:	90                   	nop
 100099b:	90                   	nop
 100099c:	90                   	nop
 100099d:	90                   	nop
 100099e:	90                   	nop
 100099f:	90                   	nop
 10009a0:	90                   	nop
 10009a1:	90                   	nop
 10009a2:	90                   	nop
 10009a3:	90                   	nop
 10009a4:	90                   	nop
 10009a5:	90                   	nop
 10009a6:	90                   	nop
 10009a7:	90                   	nop
 10009a8:	90                   	nop
 10009a9:	90                   	nop
 10009aa:	90                   	nop
 10009ab:	90                   	nop
 10009ac:	90                   	nop
 10009ad:	90                   	nop
 10009ae:	90                   	nop
 10009af:	90                   	nop
 10009b0:	90                   	nop
 10009b1:	90                   	nop
 10009b2:	90                   	nop
 10009b3:	90                   	nop
 10009b4:	90                   	nop
 10009b5:	90                   	nop
 10009b6:	90                   	nop
 10009b7:	90                   	nop
 10009b8:	90                   	nop
 10009b9:	90                   	nop
 10009ba:	90                   	nop
 10009bb:	90                   	nop
 10009bc:	90                   	nop
 10009bd:	90                   	nop
 10009be:	90                   	nop
 10009bf:	90                   	nop
 10009c0:	90                   	nop
 10009c1:	90                   	nop
 10009c2:	90                   	nop
 10009c3:	90                   	nop
 10009c4:	90                   	nop
 10009c5:	90                   	nop
 10009c6:	90                   	nop
 10009c7:	90                   	nop
 10009c8:	90                   	nop
 10009c9:	90                   	nop
 10009ca:	90                   	nop
 10009cb:	90                   	nop
 10009cc:	90                   	nop
 10009cd:	90                   	nop
 10009ce:	90                   	nop
 10009cf:	90                   	nop
 10009d0:	90                   	nop
 10009d1:	90                   	nop
 10009d2:	90                   	nop
 10009d3:	90                   	nop
 10009d4:	90                   	nop
 10009d5:	90                   	nop
 10009d6:	90                   	nop
 10009d7:	90                   	nop
 10009d8:	90                   	nop
 10009d9:	90                   	nop
 10009da:	90                   	nop
 10009db:	90                   	nop
 10009dc:	90                   	nop
 10009dd:	90                   	nop
 10009de:	90                   	nop
 10009df:	90                   	nop
 10009e0:	90                   	nop
 10009e1:	90                   	nop
 10009e2:	90                   	nop
 10009e3:	90                   	nop
 10009e4:	90                   	nop
 10009e5:	90                   	nop
 10009e6:	90                   	nop
 10009e7:	90                   	nop
 10009e8:	90                   	nop
 10009e9:	90                   	nop
 10009ea:	90                   	nop
 10009eb:	90                   	nop
 10009ec:	90                   	nop
 10009ed:	90                   	nop
 10009ee:	90                   	nop
 10009ef:	90                   	nop
 10009f0:	90                   	nop
 10009f1:	90                   	nop
 10009f2:	90                   	nop
 10009f3:	90                   	nop
 10009f4:	90                   	nop
 10009f5:	90                   	nop
 10009f6:	90                   	nop
 10009f7:	90                   	nop
 10009f8:	90                   	nop
 10009f9:	90                   	nop
 10009fa:	90                   	nop
 10009fb:	90                   	nop
 10009fc:	90                   	nop
 10009fd:	90                   	nop
 10009fe:	90                   	nop
 10009ff:	90                   	nop
 1000a00:	90                   	nop
 1000a01:	90                   	nop
 1000a02:	90                   	nop
 1000a03:	90                   	nop
 1000a04:	90                   	nop
 1000a05:	90                   	nop
 1000a06:	90                   	nop
 1000a07:	90                   	nop
 1000a08:	90                   	nop
 1000a09:	90                   	nop
 1000a0a:	90                   	nop
 1000a0b:	90                   	nop
 1000a0c:	90                   	nop
 1000a0d:	90                   	nop
 1000a0e:	90                   	nop
 1000a0f:	90                   	nop
 1000a10:	90                   	nop
 1000a11:	90                   	nop
 1000a12:	90                   	nop
 1000a13:	90                   	nop
 1000a14:	90                   	nop
 1000a15:	90                   	nop
 1000a16:	90                   	nop
 1000a17:	90                   	nop
 1000a18:	90                   	nop
 1000a19:	90                   	nop
 1000a1a:	90                   	nop
 1000a1b:	90                   	nop
 1000a1c:	90                   	nop
 1000a1d:	90                   	nop
 1000a1e:	90                   	nop
 1000a1f:	90                   	nop
 1000a20:	90                   	nop
 1000a21:	90                   	nop
 1000a22:	90                   	nop
 1000a23:	90                   	nop
 1000a24:	90                   	nop
 1000a25:	90                   	nop
 1000a26:	90                   	nop
 1000a27:	90                   	nop
 1000a28:	90                   	nop
 1000a29:	90                   	nop
 1000a2a:	90                   	nop
 1000a2b:	90                   	nop
 1000a2c:	90                   	nop
 1000a2d:	90                   	nop
 1000a2e:	90                   	nop
 1000a2f:	90                   	nop
 1000a30:	90                   	nop
 1000a31:	90                   	nop
 1000a32:	90                   	nop
 1000a33:	90                   	nop
 1000a34:	90                   	nop
 1000a35:	90                   	nop
 1000a36:	90                   	nop
 1000a37:	90                   	nop
 1000a38:	90                   	nop
 1000a39:	90                   	nop
 1000a3a:	90                   	nop
 1000a3b:	90                   	nop
 1000a3c:	90                   	nop
 1000a3d:	90                   	nop
 1000a3e:	90                   	nop
 1000a3f:	90                   	nop
 1000a40:	90                   	nop
 1000a41:	90                   	nop
 1000a42:	90                   	nop
 1000a43:	90                   	nop
 1000a44:	90                   	nop
 1000a45:	90                   	nop
 1000a46:	90                   	nop
 1000a47:	90                   	nop
 1000a48:	90                   	nop
 1000a49:	90                   	nop
 1000a4a:	90                   	nop
 1000a4b:	90                   	nop
 1000a4c:	90                   	nop
 1000a4d:	90                   	nop
 1000a4e:	90                   	nop
 1000a4f:	90                   	nop
 1000a50:	90                   	nop
 1000a51:	90                   	nop
 1000a52:	90                   	nop
 1000a53:	90                   	nop
 1000a54:	90                   	nop
 1000a55:	90                   	nop
 1000a56:	90                   	nop
 1000a57:	90                   	nop
 1000a58:	90                   	nop
 1000a59:	90                   	nop
 1000a5a:	90                   	nop
 1000a5b:	90                   	nop
 1000a5c:	90                   	nop
 1000a5d:	90                   	nop
 1000a5e:	90                   	nop
 1000a5f:	90                   	nop
 1000a60:	90                   	nop
 1000a61:	90                   	nop
 1000a62:	90                   	nop
 1000a63:	90                   	nop
 1000a64:	90                   	nop
 1000a65:	90                   	nop
 1000a66:	90                   	nop
 1000a67:	90                   	nop
 1000a68:	90                   	nop
 1000a69:	90                   	nop
 1000a6a:	90                   	nop
 1000a6b:	90                   	nop
 1000a6c:	90                   	nop
 1000a6d:	90                   	nop
 1000a6e:	90                   	nop
 1000a6f:	90                   	nop
 1000a70:	90                   	nop
 1000a71:	90                   	nop
 1000a72:	90                   	nop
 1000a73:	90                   	nop
 1000a74:	90                   	nop
 1000a75:	90                   	nop
 1000a76:	90                   	nop
 1000a77:	90                   	nop
 1000a78:	90                   	nop
 1000a79:	90                   	nop
 1000a7a:	90                   	nop
 1000a7b:	90                   	nop
 1000a7c:	90                   	nop
 1000a7d:	90                   	nop
 1000a7e:	90                   	nop
 1000a7f:	90                   	nop
 1000a80:	90                   	nop
 1000a81:	90                   	nop
 1000a82:	90                   	nop
 1000a83:	90                   	nop
 1000a84:	90                   	nop
 1000a85:	90                   	nop
 1000a86:	90                   	nop
 1000a87:	90                   	nop
 1000a88:	90                   	nop
 1000a89:	90                   	nop
 1000a8a:	90                   	nop
 1000a8b:	90                   	nop
 1000a8c:	90                   	nop
 1000a8d:	90                   	nop
 1000a8e:	90                   	nop
 1000a8f:	90                   	nop
 1000a90:	90                   	nop
 1000a91:	90                   	nop
 1000a92:	90                   	nop
 1000a93:	90                   	nop
 1000a94:	90                   	nop
 1000a95:	90                   	nop
 1000a96:	90                   	nop
 1000a97:	90                   	nop
 1000a98:	90                   	nop
 1000a99:	90                   	nop
 1000a9a:	90                   	nop
 1000a9b:	90                   	nop
 1000a9c:	90                   	nop
 1000a9d:	90                   	nop
 1000a9e:	90                   	nop
 1000a9f:	90                   	nop
 1000aa0:	90                   	nop
 1000aa1:	90                   	nop
 1000aa2:	90                   	nop
 1000aa3:	90                   	nop
 1000aa4:	90                   	nop
 1000aa5:	90                   	nop
 1000aa6:	90                   	nop
 1000aa7:	90                   	nop
 1000aa8:	90                   	nop
 1000aa9:	90                   	nop
 1000aaa:	90                   	nop
 1000aab:	90                   	nop
 1000aac:	90                   	nop
 1000aad:	90                   	nop
 1000aae:	90                   	nop
 1000aaf:	90                   	nop
 1000ab0:	90                   	nop
 1000ab1:	90                   	nop
 1000ab2:	90                   	nop
 1000ab3:	90                   	nop
 1000ab4:	90                   	nop
 1000ab5:	90                   	nop
 1000ab6:	90                   	nop
 1000ab7:	90                   	nop
 1000ab8:	90                   	nop
 1000ab9:	90                   	nop
 1000aba:	90                   	nop
 1000abb:	90                   	nop
 1000abc:	90                   	nop
 1000abd:	90                   	nop
 1000abe:	90                   	nop
 1000abf:	90                   	nop
 1000ac0:	90                   	nop
 1000ac1:	90                   	nop
 1000ac2:	90                   	nop
 1000ac3:	90                   	nop
 1000ac4:	90                   	nop
 1000ac5:	90                   	nop
 1000ac6:	90                   	nop
 1000ac7:	90                   	nop
 1000ac8:	90                   	nop
 1000ac9:	90                   	nop
 1000aca:	90                   	nop
 1000acb:	90                   	nop
 1000acc:	90                   	nop
 1000acd:	90                   	nop
 1000ace:	90                   	nop
 1000acf:	90                   	nop
 1000ad0:	90                   	nop
 1000ad1:	90                   	nop
 1000ad2:	90                   	nop
 1000ad3:	90                   	nop
 1000ad4:	90                   	nop
 1000ad5:	90                   	nop
 1000ad6:	90                   	nop
 1000ad7:	90                   	nop
 1000ad8:	90                   	nop
 1000ad9:	90                   	nop
 1000ada:	90                   	nop
 1000adb:	90                   	nop
 1000adc:	90                   	nop
 1000add:	90                   	nop
 1000ade:	90                   	nop
 1000adf:	90                   	nop
 1000ae0:	90                   	nop
 1000ae1:	90                   	nop
 1000ae2:	90                   	nop
 1000ae3:	90                   	nop
 1000ae4:	90                   	nop
 1000ae5:	90                   	nop
 1000ae6:	90                   	nop
 1000ae7:	90                   	nop
 1000ae8:	90                   	nop
 1000ae9:	90                   	nop
 1000aea:	90                   	nop
 1000aeb:	90                   	nop
 1000aec:	90                   	nop
 1000aed:	90                   	nop
 1000aee:	90                   	nop
 1000aef:	90                   	nop
 1000af0:	90                   	nop
 1000af1:	90                   	nop
 1000af2:	90                   	nop
 1000af3:	90                   	nop
 1000af4:	90                   	nop
 1000af5:	90                   	nop
 1000af6:	90                   	nop
 1000af7:	90                   	nop
 1000af8:	90                   	nop
 1000af9:	90                   	nop
 1000afa:	90                   	nop
 1000afb:	90                   	nop
 1000afc:	90                   	nop
 1000afd:	90                   	nop
 1000afe:	90                   	nop
 1000aff:	90                   	nop
 1000b00:	90                   	nop
 1000b01:	90                   	nop
 1000b02:	90                   	nop
 1000b03:	90                   	nop
 1000b04:	90                   	nop
 1000b05:	90                   	nop
 1000b06:	90                   	nop
 1000b07:	90                   	nop
 1000b08:	90                   	nop
 1000b09:	90                   	nop
 1000b0a:	90                   	nop
 1000b0b:	90                   	nop
 1000b0c:	90                   	nop
 1000b0d:	90                   	nop
 1000b0e:	90                   	nop
 1000b0f:	90                   	nop
 1000b10:	90                   	nop
 1000b11:	90                   	nop
 1000b12:	90                   	nop
 1000b13:	90                   	nop
 1000b14:	90                   	nop
 1000b15:	90                   	nop
 1000b16:	90                   	nop
 1000b17:	90                   	nop
 1000b18:	90                   	nop
 1000b19:	90                   	nop
 1000b1a:	90                   	nop
 1000b1b:	90                   	nop
 1000b1c:	90                   	nop
 1000b1d:	90                   	nop
 1000b1e:	90                   	nop
 1000b1f:	90                   	nop
 1000b20:	90                   	nop
 1000b21:	90                   	nop
 1000b22:	90                   	nop
 1000b23:	90                   	nop
 1000b24:	90                   	nop
 1000b25:	90                   	nop
 1000b26:	90                   	nop
 1000b27:	90                   	nop
 1000b28:	90                   	nop
 1000b29:	90                   	nop
 1000b2a:	90                   	nop
 1000b2b:	90                   	nop
 1000b2c:	90                   	nop
 1000b2d:	90                   	nop
 1000b2e:	90                   	nop
 1000b2f:	90                   	nop
 1000b30:	90                   	nop
 1000b31:	90                   	nop
 1000b32:	90                   	nop
 1000b33:	90                   	nop
 1000b34:	90                   	nop
 1000b35:	90                   	nop
 1000b36:	90                   	nop
 1000b37:	90                   	nop
 1000b38:	90                   	nop
 1000b39:	90                   	nop
 1000b3a:	90                   	nop
 1000b3b:	90                   	nop
 1000b3c:	90                   	nop
 1000b3d:	90                   	nop
 1000b3e:	90                   	nop
 1000b3f:	90                   	nop
 1000b40:	90                   	nop
 1000b41:	90                   	nop
 1000b42:	90                   	nop
 1000b43:	90                   	nop
 1000b44:	90                   	nop
 1000b45:	90                   	nop
 1000b46:	90                   	nop
 1000b47:	90                   	nop
 1000b48:	90                   	nop
 1000b49:	90                   	nop
 1000b4a:	90                   	nop
 1000b4b:	90                   	nop
 1000b4c:	90                   	nop
 1000b4d:	90                   	nop
 1000b4e:	90                   	nop
 1000b4f:	90                   	nop
 1000b50:	90                   	nop
 1000b51:	90                   	nop
 1000b52:	90                   	nop
 1000b53:	90                   	nop
 1000b54:	90                   	nop
 1000b55:	90                   	nop
 1000b56:	90                   	nop
 1000b57:	90                   	nop
 1000b58:	90                   	nop
 1000b59:	90                   	nop
 1000b5a:	90                   	nop
 1000b5b:	90                   	nop
 1000b5c:	90                   	nop
 1000b5d:	90                   	nop
 1000b5e:	90                   	nop
 1000b5f:	90                   	nop
 1000b60:	90                   	nop
 1000b61:	90                   	nop
 1000b62:	90                   	nop
 1000b63:	90                   	nop
 1000b64:	90                   	nop
 1000b65:	90                   	nop
 1000b66:	90                   	nop
 1000b67:	90                   	nop
 1000b68:	90                   	nop
 1000b69:	90                   	nop
 1000b6a:	90                   	nop
 1000b6b:	90                   	nop
 1000b6c:	90                   	nop
 1000b6d:	90                   	nop
 1000b6e:	90                   	nop
 1000b6f:	90                   	nop
 1000b70:	90                   	nop
 1000b71:	90                   	nop
 1000b72:	90                   	nop
 1000b73:	90                   	nop
 1000b74:	90                   	nop
 1000b75:	90                   	nop
 1000b76:	90                   	nop
 1000b77:	90                   	nop
 1000b78:	90                   	nop
 1000b79:	90                   	nop
 1000b7a:	90                   	nop
 1000b7b:	90                   	nop
 1000b7c:	90                   	nop
 1000b7d:	90                   	nop
 1000b7e:	90                   	nop
 1000b7f:	90                   	nop
 1000b80:	90                   	nop
 1000b81:	90                   	nop
 1000b82:	90                   	nop
 1000b83:	90                   	nop
 1000b84:	90                   	nop
 1000b85:	90                   	nop
 1000b86:	90                   	nop
 1000b87:	90                   	nop
 1000b88:	90                   	nop
 1000b89:	90                   	nop
 1000b8a:	90                   	nop
 1000b8b:	90                   	nop
 1000b8c:	90                   	nop
 1000b8d:	90                   	nop
 1000b8e:	90                   	nop
 1000b8f:	90                   	nop
 1000b90:	90                   	nop
 1000b91:	90                   	nop
 1000b92:	90                   	nop
 1000b93:	90                   	nop
 1000b94:	90                   	nop
 1000b95:	90                   	nop
 1000b96:	90                   	nop
 1000b97:	90                   	nop
 1000b98:	90                   	nop
 1000b99:	90                   	nop
 1000b9a:	90                   	nop
 1000b9b:	90                   	nop
 1000b9c:	90                   	nop
 1000b9d:	90                   	nop
 1000b9e:	90                   	nop
 1000b9f:	90                   	nop
 1000ba0:	90                   	nop
 1000ba1:	90                   	nop
 1000ba2:	90                   	nop
 1000ba3:	90                   	nop
 1000ba4:	90                   	nop
 1000ba5:	90                   	nop
 1000ba6:	90                   	nop
 1000ba7:	90                   	nop
 1000ba8:	90                   	nop
 1000ba9:	90                   	nop
 1000baa:	90                   	nop
 1000bab:	90                   	nop
 1000bac:	90                   	nop
 1000bad:	90                   	nop
 1000bae:	90                   	nop
 1000baf:	90                   	nop
 1000bb0:	90                   	nop
 1000bb1:	90                   	nop
 1000bb2:	90                   	nop
 1000bb3:	90                   	nop
 1000bb4:	90                   	nop
 1000bb5:	90                   	nop
 1000bb6:	90                   	nop
 1000bb7:	90                   	nop
 1000bb8:	90                   	nop
 1000bb9:	90                   	nop
 1000bba:	90                   	nop
 1000bbb:	90                   	nop
 1000bbc:	90                   	nop
 1000bbd:	90                   	nop
 1000bbe:	90                   	nop
 1000bbf:	90                   	nop
 1000bc0:	90                   	nop
 1000bc1:	90                   	nop
 1000bc2:	90                   	nop
 1000bc3:	90                   	nop
 1000bc4:	90                   	nop
 1000bc5:	90                   	nop
 1000bc6:	90                   	nop
 1000bc7:	90                   	nop
 1000bc8:	90                   	nop
 1000bc9:	90                   	nop
 1000bca:	90                   	nop
 1000bcb:	90                   	nop
 1000bcc:	90                   	nop
 1000bcd:	90                   	nop
 1000bce:	90                   	nop
 1000bcf:	90                   	nop
 1000bd0:	90                   	nop
 1000bd1:	90                   	nop
 1000bd2:	90                   	nop
 1000bd3:	90                   	nop
 1000bd4:	90                   	nop
 1000bd5:	90                   	nop
 1000bd6:	90                   	nop
 1000bd7:	90                   	nop
 1000bd8:	90                   	nop
 1000bd9:	90                   	nop
 1000bda:	90                   	nop
 1000bdb:	90                   	nop
 1000bdc:	90                   	nop
 1000bdd:	90                   	nop
 1000bde:	90                   	nop
 1000bdf:	90                   	nop
 1000be0:	90                   	nop
 1000be1:	90                   	nop
 1000be2:	90                   	nop
 1000be3:	90                   	nop
 1000be4:	90                   	nop
 1000be5:	90                   	nop
 1000be6:	90                   	nop
 1000be7:	90                   	nop
 1000be8:	90                   	nop
 1000be9:	90                   	nop
 1000bea:	90                   	nop
 1000beb:	90                   	nop
 1000bec:	90                   	nop
 1000bed:	90                   	nop
 1000bee:	90                   	nop
 1000bef:	90                   	nop
 1000bf0:	90                   	nop
 1000bf1:	90                   	nop
 1000bf2:	90                   	nop
 1000bf3:	90                   	nop
 1000bf4:	90                   	nop
 1000bf5:	90                   	nop
 1000bf6:	90                   	nop
 1000bf7:	90                   	nop
 1000bf8:	90                   	nop
 1000bf9:	90                   	nop
 1000bfa:	90                   	nop
 1000bfb:	90                   	nop
 1000bfc:	90                   	nop
 1000bfd:	90                   	nop
 1000bfe:	90                   	nop
 1000bff:	90                   	nop
 1000c00:	90                   	nop
 1000c01:	90                   	nop
 1000c02:	90                   	nop
 1000c03:	90                   	nop
 1000c04:	90                   	nop
 1000c05:	90                   	nop
 1000c06:	90                   	nop
 1000c07:	90                   	nop
 1000c08:	90                   	nop
 1000c09:	90                   	nop
 1000c0a:	90                   	nop
 1000c0b:	90                   	nop
 1000c0c:	90                   	nop
 1000c0d:	90                   	nop
 1000c0e:	90                   	nop
 1000c0f:	90                   	nop
 1000c10:	90                   	nop
 1000c11:	90                   	nop
 1000c12:	90                   	nop
 1000c13:	90                   	nop
 1000c14:	90                   	nop
 1000c15:	90                   	nop
 1000c16:	90                   	nop
 1000c17:	90                   	nop
 1000c18:	90                   	nop
 1000c19:	90                   	nop
 1000c1a:	90                   	nop
 1000c1b:	90                   	nop
 1000c1c:	90                   	nop
 1000c1d:	90                   	nop
 1000c1e:	90                   	nop
 1000c1f:	90                   	nop
 1000c20:	90                   	nop
 1000c21:	90                   	nop
 1000c22:	90                   	nop
 1000c23:	90                   	nop
 1000c24:	90                   	nop
 1000c25:	90                   	nop
 1000c26:	90                   	nop
 1000c27:	90                   	nop
 1000c28:	90                   	nop
 1000c29:	90                   	nop
 1000c2a:	90                   	nop
 1000c2b:	90                   	nop
 1000c2c:	90                   	nop
 1000c2d:	90                   	nop
 1000c2e:	90                   	nop
 1000c2f:	90                   	nop
 1000c30:	90                   	nop
 1000c31:	90                   	nop
 1000c32:	90                   	nop
 1000c33:	90                   	nop
 1000c34:	90                   	nop
 1000c35:	90                   	nop
 1000c36:	90                   	nop
 1000c37:	90                   	nop
 1000c38:	90                   	nop
 1000c39:	90                   	nop
 1000c3a:	90                   	nop
 1000c3b:	90                   	nop
 1000c3c:	90                   	nop
 1000c3d:	90                   	nop
 1000c3e:	90                   	nop
 1000c3f:	90                   	nop
 1000c40:	90                   	nop
 1000c41:	90                   	nop
 1000c42:	90                   	nop
 1000c43:	90                   	nop
 1000c44:	90                   	nop
 1000c45:	90                   	nop
 1000c46:	90                   	nop
 1000c47:	90                   	nop
 1000c48:	90                   	nop
 1000c49:	90                   	nop
 1000c4a:	90                   	nop
 1000c4b:	90                   	nop
 1000c4c:	90                   	nop
 1000c4d:	90                   	nop
 1000c4e:	90                   	nop
 1000c4f:	90                   	nop
 1000c50:	90                   	nop
 1000c51:	90                   	nop
 1000c52:	90                   	nop
 1000c53:	90                   	nop
 1000c54:	90                   	nop
 1000c55:	90                   	nop
 1000c56:	90                   	nop
 1000c57:	90                   	nop
 1000c58:	90                   	nop
 1000c59:	90                   	nop
 1000c5a:	90                   	nop
 1000c5b:	90                   	nop
 1000c5c:	90                   	nop
 1000c5d:	90                   	nop
 1000c5e:	90                   	nop
 1000c5f:	90                   	nop
 1000c60:	90                   	nop
 1000c61:	90                   	nop
 1000c62:	90                   	nop
 1000c63:	90                   	nop
 1000c64:	90                   	nop
 1000c65:	90                   	nop
 1000c66:	90                   	nop
 1000c67:	90                   	nop
 1000c68:	90                   	nop
 1000c69:	90                   	nop
 1000c6a:	90                   	nop
 1000c6b:	90                   	nop
 1000c6c:	90                   	nop
 1000c6d:	90                   	nop
 1000c6e:	90                   	nop
 1000c6f:	90                   	nop
 1000c70:	90                   	nop
 1000c71:	90                   	nop
 1000c72:	90                   	nop
 1000c73:	90                   	nop
 1000c74:	90                   	nop
 1000c75:	90                   	nop
 1000c76:	90                   	nop
 1000c77:	90                   	nop
 1000c78:	90                   	nop
 1000c79:	90                   	nop
 1000c7a:	90                   	nop
 1000c7b:	90                   	nop
 1000c7c:	90                   	nop
 1000c7d:	90                   	nop
 1000c7e:	90                   	nop
 1000c7f:	90                   	nop
 1000c80:	90                   	nop
 1000c81:	90                   	nop
 1000c82:	90                   	nop
 1000c83:	90                   	nop
 1000c84:	90                   	nop
 1000c85:	90                   	nop
 1000c86:	90                   	nop
 1000c87:	90                   	nop
 1000c88:	90                   	nop
 1000c89:	90                   	nop
 1000c8a:	90                   	nop
 1000c8b:	90                   	nop
 1000c8c:	90                   	nop
 1000c8d:	90                   	nop
 1000c8e:	90                   	nop
 1000c8f:	90                   	nop
 1000c90:	90                   	nop
 1000c91:	90                   	nop
 1000c92:	90                   	nop
 1000c93:	90                   	nop
 1000c94:	90                   	nop
 1000c95:	90                   	nop
 1000c96:	90                   	nop
 1000c97:	90                   	nop
 1000c98:	90                   	nop
 1000c99:	90                   	nop
 1000c9a:	90                   	nop
 1000c9b:	90                   	nop
 1000c9c:	90                   	nop
 1000c9d:	90                   	nop
 1000c9e:	90                   	nop
 1000c9f:	90                   	nop
 1000ca0:	90                   	nop
 1000ca1:	90                   	nop
 1000ca2:	90                   	nop
 1000ca3:	90                   	nop
 1000ca4:	90                   	nop
 1000ca5:	90                   	nop
 1000ca6:	90                   	nop
 1000ca7:	90                   	nop
 1000ca8:	90                   	nop
 1000ca9:	90                   	nop
 1000caa:	90                   	nop
 1000cab:	90                   	nop
 1000cac:	90                   	nop
 1000cad:	90                   	nop
 1000cae:	90                   	nop
 1000caf:	90                   	nop
 1000cb0:	90                   	nop
 1000cb1:	90                   	nop
 1000cb2:	90                   	nop
 1000cb3:	90                   	nop
 1000cb4:	90                   	nop
 1000cb5:	90                   	nop
 1000cb6:	90                   	nop
 1000cb7:	90                   	nop
 1000cb8:	90                   	nop
 1000cb9:	90                   	nop
 1000cba:	90                   	nop
 1000cbb:	90                   	nop
 1000cbc:	90                   	nop
 1000cbd:	90                   	nop
 1000cbe:	90                   	nop
 1000cbf:	90                   	nop
 1000cc0:	90                   	nop
 1000cc1:	90                   	nop
 1000cc2:	90                   	nop
 1000cc3:	90                   	nop
 1000cc4:	90                   	nop
 1000cc5:	90                   	nop
 1000cc6:	90                   	nop
 1000cc7:	90                   	nop
 1000cc8:	90                   	nop
 1000cc9:	90                   	nop
 1000cca:	90                   	nop
 1000ccb:	90                   	nop
 1000ccc:	90                   	nop
 1000ccd:	90                   	nop
 1000cce:	90                   	nop
 1000ccf:	90                   	nop
 1000cd0:	90                   	nop
 1000cd1:	90                   	nop
 1000cd2:	90                   	nop
 1000cd3:	90                   	nop
 1000cd4:	90                   	nop
 1000cd5:	90                   	nop
 1000cd6:	90                   	nop
 1000cd7:	90                   	nop
 1000cd8:	90                   	nop
 1000cd9:	90                   	nop
 1000cda:	90                   	nop
 1000cdb:	90                   	nop
 1000cdc:	90                   	nop
 1000cdd:	90                   	nop
 1000cde:	90                   	nop
 1000cdf:	90                   	nop
 1000ce0:	90                   	nop
 1000ce1:	90                   	nop
 1000ce2:	90                   	nop
 1000ce3:	90                   	nop
 1000ce4:	90                   	nop
 1000ce5:	90                   	nop
 1000ce6:	90                   	nop
 1000ce7:	90                   	nop
 1000ce8:	90                   	nop
 1000ce9:	90                   	nop
 1000cea:	90                   	nop
 1000ceb:	90                   	nop
 1000cec:	90                   	nop
 1000ced:	90                   	nop
 1000cee:	90                   	nop
 1000cef:	90                   	nop
 1000cf0:	90                   	nop
 1000cf1:	90                   	nop
 1000cf2:	90                   	nop
 1000cf3:	90                   	nop
 1000cf4:	90                   	nop
 1000cf5:	90                   	nop
 1000cf6:	90                   	nop
 1000cf7:	90                   	nop
 1000cf8:	90                   	nop
 1000cf9:	90                   	nop
 1000cfa:	90                   	nop
 1000cfb:	90                   	nop
 1000cfc:	90                   	nop
 1000cfd:	90                   	nop
 1000cfe:	90                   	nop
 1000cff:	90                   	nop
 1000d00:	90                   	nop
 1000d01:	90                   	nop
 1000d02:	90                   	nop
 1000d03:	90                   	nop
 1000d04:	90                   	nop
 1000d05:	90                   	nop
 1000d06:	90                   	nop
 1000d07:	90                   	nop
 1000d08:	90                   	nop
 1000d09:	90                   	nop
 1000d0a:	90                   	nop
 1000d0b:	90                   	nop
 1000d0c:	90                   	nop
 1000d0d:	90                   	nop
 1000d0e:	90                   	nop
 1000d0f:	90                   	nop
 1000d10:	90                   	nop
 1000d11:	90                   	nop
 1000d12:	90                   	nop
 1000d13:	90                   	nop
 1000d14:	90                   	nop
 1000d15:	90                   	nop
 1000d16:	90                   	nop
 1000d17:	90                   	nop
 1000d18:	90                   	nop
 1000d19:	90                   	nop
 1000d1a:	90                   	nop
 1000d1b:	90                   	nop
 1000d1c:	90                   	nop
 1000d1d:	90                   	nop
 1000d1e:	90                   	nop
 1000d1f:	90                   	nop
 1000d20:	90                   	nop
 1000d21:	90                   	nop
 1000d22:	90                   	nop
 1000d23:	90                   	nop
 1000d24:	90                   	nop
 1000d25:	90                   	nop
 1000d26:	90                   	nop
 1000d27:	90                   	nop
 1000d28:	90                   	nop
 1000d29:	90                   	nop
 1000d2a:	90                   	nop
 1000d2b:	90                   	nop
 1000d2c:	90                   	nop
 1000d2d:	90                   	nop
 1000d2e:	90                   	nop
 1000d2f:	90                   	nop
 1000d30:	90                   	nop
 1000d31:	90                   	nop
 1000d32:	90                   	nop
 1000d33:	90                   	nop
 1000d34:	90                   	nop
 1000d35:	90                   	nop
 1000d36:	90                   	nop
 1000d37:	90                   	nop
 1000d38:	90                   	nop
 1000d39:	90                   	nop
 1000d3a:	90                   	nop
 1000d3b:	90                   	nop
 1000d3c:	90                   	nop
 1000d3d:	90                   	nop
 1000d3e:	90                   	nop
 1000d3f:	90                   	nop
 1000d40:	90                   	nop
 1000d41:	90                   	nop
 1000d42:	90                   	nop
 1000d43:	90                   	nop
 1000d44:	90                   	nop
 1000d45:	90                   	nop
 1000d46:	90                   	nop
 1000d47:	90                   	nop
 1000d48:	90                   	nop
 1000d49:	90                   	nop
 1000d4a:	90                   	nop
 1000d4b:	90                   	nop
 1000d4c:	90                   	nop
 1000d4d:	90                   	nop
 1000d4e:	90                   	nop
 1000d4f:	90                   	nop
 1000d50:	90                   	nop
 1000d51:	90                   	nop
 1000d52:	90                   	nop
 1000d53:	90                   	nop
 1000d54:	90                   	nop
 1000d55:	90                   	nop
 1000d56:	90                   	nop
 1000d57:	90                   	nop
 1000d58:	90                   	nop
 1000d59:	90                   	nop
 1000d5a:	90                   	nop
 1000d5b:	90                   	nop
 1000d5c:	90                   	nop
 1000d5d:	90                   	nop
 1000d5e:	90                   	nop
 1000d5f:	90                   	nop
 1000d60:	90                   	nop
 1000d61:	90                   	nop
 1000d62:	90                   	nop
 1000d63:	90                   	nop
 1000d64:	90                   	nop
 1000d65:	90                   	nop
 1000d66:	90                   	nop
 1000d67:	90                   	nop
 1000d68:	90                   	nop
 1000d69:	90                   	nop
 1000d6a:	90                   	nop
 1000d6b:	90                   	nop
 1000d6c:	90                   	nop
 1000d6d:	90                   	nop
 1000d6e:	90                   	nop
 1000d6f:	90                   	nop
 1000d70:	90                   	nop
 1000d71:	90                   	nop
 1000d72:	90                   	nop
 1000d73:	90                   	nop
 1000d74:	90                   	nop
 1000d75:	90                   	nop
 1000d76:	90                   	nop
 1000d77:	90                   	nop
 1000d78:	90                   	nop
 1000d79:	90                   	nop
 1000d7a:	90                   	nop
 1000d7b:	90                   	nop
 1000d7c:	90                   	nop
 1000d7d:	90                   	nop
 1000d7e:	90                   	nop
 1000d7f:	90                   	nop
 1000d80:	90                   	nop
 1000d81:	90                   	nop
 1000d82:	90                   	nop
 1000d83:	90                   	nop
 1000d84:	90                   	nop
 1000d85:	90                   	nop
 1000d86:	90                   	nop
 1000d87:	90                   	nop
 1000d88:	90                   	nop
 1000d89:	90                   	nop
 1000d8a:	90                   	nop
 1000d8b:	90                   	nop
 1000d8c:	90                   	nop
 1000d8d:	90                   	nop
 1000d8e:	90                   	nop
 1000d8f:	90                   	nop
 1000d90:	90                   	nop
 1000d91:	90                   	nop
 1000d92:	90                   	nop
 1000d93:	90                   	nop
 1000d94:	90                   	nop
 1000d95:	90                   	nop
 1000d96:	90                   	nop
 1000d97:	90                   	nop
 1000d98:	90                   	nop
 1000d99:	90                   	nop
 1000d9a:	90                   	nop
 1000d9b:	90                   	nop
 1000d9c:	90                   	nop
 1000d9d:	90                   	nop
 1000d9e:	90                   	nop
 1000d9f:	90                   	nop
 1000da0:	90                   	nop
 1000da1:	90                   	nop
 1000da2:	90                   	nop
 1000da3:	90                   	nop
 1000da4:	90                   	nop
 1000da5:	90                   	nop
 1000da6:	90                   	nop
 1000da7:	90                   	nop
 1000da8:	90                   	nop
 1000da9:	90                   	nop
 1000daa:	90                   	nop
 1000dab:	90                   	nop
 1000dac:	90                   	nop
 1000dad:	90                   	nop
 1000dae:	90                   	nop
 1000daf:	90                   	nop
 1000db0:	90                   	nop
 1000db1:	90                   	nop
 1000db2:	90                   	nop
 1000db3:	90                   	nop
 1000db4:	90                   	nop
 1000db5:	90                   	nop
 1000db6:	90                   	nop
 1000db7:	90                   	nop
 1000db8:	90                   	nop
 1000db9:	90                   	nop
 1000dba:	90                   	nop
 1000dbb:	90                   	nop
 1000dbc:	90                   	nop
 1000dbd:	90                   	nop
 1000dbe:	90                   	nop
 1000dbf:	90                   	nop
 1000dc0:	90                   	nop
 1000dc1:	90                   	nop
 1000dc2:	90                   	nop
 1000dc3:	90                   	nop
 1000dc4:	90                   	nop
 1000dc5:	90                   	nop
 1000dc6:	90                   	nop
 1000dc7:	90                   	nop
 1000dc8:	90                   	nop
 1000dc9:	90                   	nop
 1000dca:	90                   	nop
 1000dcb:	90                   	nop
 1000dcc:	90                   	nop
 1000dcd:	90                   	nop
 1000dce:	90                   	nop
 1000dcf:	90                   	nop
 1000dd0:	90                   	nop
 1000dd1:	90                   	nop
 1000dd2:	90                   	nop
 1000dd3:	90                   	nop
 1000dd4:	90                   	nop
 1000dd5:	90                   	nop
 1000dd6:	90                   	nop
 1000dd7:	90                   	nop
 1000dd8:	90                   	nop
 1000dd9:	90                   	nop
 1000dda:	90                   	nop
 1000ddb:	90                   	nop
 1000ddc:	90                   	nop
 1000ddd:	90                   	nop
 1000dde:	90                   	nop
 1000ddf:	90                   	nop
 1000de0:	90                   	nop
 1000de1:	90                   	nop
 1000de2:	90                   	nop
 1000de3:	90                   	nop
 1000de4:	90                   	nop
 1000de5:	90                   	nop
 1000de6:	90                   	nop
 1000de7:	90                   	nop
 1000de8:	90                   	nop
 1000de9:	90                   	nop
 1000dea:	90                   	nop
 1000deb:	90                   	nop
 1000dec:	90                   	nop
 1000ded:	90                   	nop
 1000dee:	90                   	nop
 1000def:	90                   	nop
 1000df0:	90                   	nop
 1000df1:	90                   	nop
 1000df2:	90                   	nop
 1000df3:	90                   	nop
 1000df4:	90                   	nop
 1000df5:	90                   	nop
 1000df6:	90                   	nop
 1000df7:	90                   	nop
 1000df8:	90                   	nop
 1000df9:	90                   	nop
 1000dfa:	90                   	nop
 1000dfb:	90                   	nop
 1000dfc:	90                   	nop
 1000dfd:	90                   	nop
 1000dfe:	90                   	nop
 1000dff:	90                   	nop
 1000e00:	90                   	nop
 1000e01:	90                   	nop
 1000e02:	90                   	nop
 1000e03:	90                   	nop
 1000e04:	90                   	nop
 1000e05:	90                   	nop
 1000e06:	90                   	nop
 1000e07:	90                   	nop
 1000e08:	90                   	nop
 1000e09:	90                   	nop
 1000e0a:	90                   	nop
 1000e0b:	90                   	nop
 1000e0c:	90                   	nop
 1000e0d:	90                   	nop
 1000e0e:	90                   	nop
 1000e0f:	90                   	nop
 1000e10:	90                   	nop
 1000e11:	90                   	nop
 1000e12:	90                   	nop
 1000e13:	90                   	nop
 1000e14:	90                   	nop
 1000e15:	90                   	nop
 1000e16:	90                   	nop
 1000e17:	90                   	nop
 1000e18:	90                   	nop
 1000e19:	90                   	nop
 1000e1a:	90                   	nop
 1000e1b:	90                   	nop
 1000e1c:	90                   	nop
 1000e1d:	90                   	nop
 1000e1e:	90                   	nop
 1000e1f:	90                   	nop
 1000e20:	90                   	nop
 1000e21:	90                   	nop
 1000e22:	90                   	nop
 1000e23:	90                   	nop
 1000e24:	90                   	nop
 1000e25:	90                   	nop
 1000e26:	90                   	nop
 1000e27:	90                   	nop
 1000e28:	90                   	nop
 1000e29:	90                   	nop
 1000e2a:	90                   	nop
 1000e2b:	90                   	nop
 1000e2c:	90                   	nop
 1000e2d:	90                   	nop
 1000e2e:	90                   	nop
 1000e2f:	90                   	nop
 1000e30:	90                   	nop
 1000e31:	90                   	nop
 1000e32:	90                   	nop
 1000e33:	90                   	nop
 1000e34:	90                   	nop
 1000e35:	90                   	nop
 1000e36:	90                   	nop
 1000e37:	90                   	nop
 1000e38:	90                   	nop
 1000e39:	90                   	nop
 1000e3a:	90                   	nop
 1000e3b:	90                   	nop
 1000e3c:	90                   	nop
 1000e3d:	90                   	nop
 1000e3e:	90                   	nop
 1000e3f:	90                   	nop
 1000e40:	90                   	nop
 1000e41:	90                   	nop
 1000e42:	90                   	nop
 1000e43:	90                   	nop
 1000e44:	90                   	nop
 1000e45:	90                   	nop
 1000e46:	90                   	nop
 1000e47:	90                   	nop
 1000e48:	90                   	nop
 1000e49:	90                   	nop
 1000e4a:	90                   	nop
 1000e4b:	90                   	nop
 1000e4c:	90                   	nop
 1000e4d:	90                   	nop
 1000e4e:	90                   	nop
 1000e4f:	90                   	nop
 1000e50:	90                   	nop
 1000e51:	90                   	nop
 1000e52:	90                   	nop
 1000e53:	90                   	nop
 1000e54:	90                   	nop
 1000e55:	90                   	nop
 1000e56:	90                   	nop
 1000e57:	90                   	nop
 1000e58:	90                   	nop
 1000e59:	90                   	nop
 1000e5a:	90                   	nop
 1000e5b:	90                   	nop
 1000e5c:	90                   	nop
 1000e5d:	90                   	nop
 1000e5e:	90                   	nop
 1000e5f:	90                   	nop
 1000e60:	90                   	nop
 1000e61:	90                   	nop
 1000e62:	90                   	nop
 1000e63:	90                   	nop
 1000e64:	90                   	nop
 1000e65:	90                   	nop
 1000e66:	90                   	nop
 1000e67:	90                   	nop
 1000e68:	90                   	nop
 1000e69:	90                   	nop
 1000e6a:	90                   	nop
 1000e6b:	90                   	nop
 1000e6c:	90                   	nop
 1000e6d:	90                   	nop
 1000e6e:	90                   	nop
 1000e6f:	90                   	nop
 1000e70:	90                   	nop
 1000e71:	90                   	nop
 1000e72:	90                   	nop
 1000e73:	90                   	nop
 1000e74:	90                   	nop
 1000e75:	90                   	nop
 1000e76:	90                   	nop
 1000e77:	90                   	nop
 1000e78:	90                   	nop
 1000e79:	90                   	nop
 1000e7a:	90                   	nop
 1000e7b:	90                   	nop
 1000e7c:	90                   	nop
 1000e7d:	90                   	nop
 1000e7e:	90                   	nop
 1000e7f:	90                   	nop
 1000e80:	90                   	nop
 1000e81:	90                   	nop
 1000e82:	90                   	nop
 1000e83:	90                   	nop
 1000e84:	90                   	nop
 1000e85:	90                   	nop
 1000e86:	90                   	nop
 1000e87:	90                   	nop
 1000e88:	90                   	nop
 1000e89:	90                   	nop
 1000e8a:	90                   	nop
 1000e8b:	90                   	nop
 1000e8c:	90                   	nop
 1000e8d:	90                   	nop
 1000e8e:	90                   	nop
 1000e8f:	90                   	nop
 1000e90:	90                   	nop
 1000e91:	90                   	nop
 1000e92:	90                   	nop
 1000e93:	90                   	nop
 1000e94:	90                   	nop
 1000e95:	90                   	nop
 1000e96:	90                   	nop
 1000e97:	90                   	nop
 1000e98:	90                   	nop
 1000e99:	90                   	nop
 1000e9a:	90                   	nop
 1000e9b:	90                   	nop
 1000e9c:	90                   	nop
 1000e9d:	90                   	nop
 1000e9e:	90                   	nop
 1000e9f:	90                   	nop
 1000ea0:	90                   	nop
 1000ea1:	90                   	nop
 1000ea2:	90                   	nop
 1000ea3:	90                   	nop
 1000ea4:	90                   	nop
 1000ea5:	90                   	nop
 1000ea6:	90                   	nop
 1000ea7:	90                   	nop
 1000ea8:	90                   	nop
 1000ea9:	90                   	nop
 1000eaa:	90                   	nop
 1000eab:	90                   	nop
 1000eac:	90                   	nop
 1000ead:	90                   	nop
 1000eae:	90                   	nop
 1000eaf:	90                   	nop
 1000eb0:	90                   	nop
 1000eb1:	90                   	nop
 1000eb2:	90                   	nop
 1000eb3:	90                   	nop
 1000eb4:	90                   	nop
 1000eb5:	90                   	nop
 1000eb6:	90                   	nop
 1000eb7:	90                   	nop
 1000eb8:	90                   	nop
 1000eb9:	90                   	nop
 1000eba:	90                   	nop
 1000ebb:	90                   	nop
 1000ebc:	90                   	nop
 1000ebd:	90                   	nop
 1000ebe:	90                   	nop
 1000ebf:	90                   	nop
 1000ec0:	90                   	nop
 1000ec1:	90                   	nop
 1000ec2:	90                   	nop
 1000ec3:	90                   	nop
 1000ec4:	90                   	nop
 1000ec5:	90                   	nop
 1000ec6:	90                   	nop
 1000ec7:	90                   	nop
 1000ec8:	90                   	nop
 1000ec9:	90                   	nop
 1000eca:	90                   	nop
 1000ecb:	90                   	nop
 1000ecc:	90                   	nop
 1000ecd:	90                   	nop
 1000ece:	90                   	nop
 1000ecf:	90                   	nop
 1000ed0:	90                   	nop
 1000ed1:	90                   	nop
 1000ed2:	90                   	nop
 1000ed3:	90                   	nop
 1000ed4:	90                   	nop
 1000ed5:	90                   	nop
 1000ed6:	90                   	nop
 1000ed7:	90                   	nop
 1000ed8:	90                   	nop
 1000ed9:	90                   	nop
 1000eda:	90                   	nop
 1000edb:	90                   	nop
 1000edc:	90                   	nop
 1000edd:	90                   	nop
 1000ede:	90                   	nop
 1000edf:	90                   	nop
 1000ee0:	90                   	nop
 1000ee1:	90                   	nop
 1000ee2:	90                   	nop
 1000ee3:	90                   	nop
 1000ee4:	90                   	nop
 1000ee5:	90                   	nop
 1000ee6:	90                   	nop
 1000ee7:	90                   	nop
 1000ee8:	90                   	nop
 1000ee9:	90                   	nop
 1000eea:	90                   	nop
 1000eeb:	90                   	nop
 1000eec:	90                   	nop
 1000eed:	90                   	nop
 1000eee:	90                   	nop
 1000eef:	90                   	nop
 1000ef0:	90                   	nop
 1000ef1:	90                   	nop
 1000ef2:	90                   	nop
 1000ef3:	90                   	nop
 1000ef4:	90                   	nop
 1000ef5:	90                   	nop
 1000ef6:	90                   	nop
 1000ef7:	90                   	nop
 1000ef8:	90                   	nop
 1000ef9:	90                   	nop
 1000efa:	90                   	nop
 1000efb:	90                   	nop
 1000efc:	90                   	nop
 1000efd:	90                   	nop
 1000efe:	90                   	nop
 1000eff:	90                   	nop
 1000f00:	90                   	nop
 1000f01:	90                   	nop
 1000f02:	90                   	nop
 1000f03:	90                   	nop
 1000f04:	90                   	nop
 1000f05:	90                   	nop
 1000f06:	90                   	nop
 1000f07:	90                   	nop
 1000f08:	90                   	nop
 1000f09:	90                   	nop
 1000f0a:	90                   	nop
 1000f0b:	90                   	nop
 1000f0c:	90                   	nop
 1000f0d:	90                   	nop
 1000f0e:	90                   	nop
 1000f0f:	90                   	nop
 1000f10:	90                   	nop
 1000f11:	90                   	nop
 1000f12:	90                   	nop
 1000f13:	90                   	nop
 1000f14:	90                   	nop
 1000f15:	90                   	nop
 1000f16:	90                   	nop
 1000f17:	90                   	nop
 1000f18:	90                   	nop
 1000f19:	90                   	nop
 1000f1a:	90                   	nop
 1000f1b:	90                   	nop
 1000f1c:	90                   	nop
 1000f1d:	90                   	nop
 1000f1e:	90                   	nop
 1000f1f:	90                   	nop
 1000f20:	90                   	nop
 1000f21:	90                   	nop
 1000f22:	90                   	nop
 1000f23:	90                   	nop
 1000f24:	90                   	nop
 1000f25:	90                   	nop
 1000f26:	90                   	nop
 1000f27:	90                   	nop
 1000f28:	90                   	nop
 1000f29:	90                   	nop
 1000f2a:	90                   	nop
 1000f2b:	90                   	nop
 1000f2c:	90                   	nop
 1000f2d:	90                   	nop
 1000f2e:	90                   	nop
 1000f2f:	90                   	nop
 1000f30:	90                   	nop
 1000f31:	90                   	nop
 1000f32:	90                   	nop
 1000f33:	90                   	nop
 1000f34:	90                   	nop
 1000f35:	90                   	nop
 1000f36:	90                   	nop
 1000f37:	90                   	nop
 1000f38:	90                   	nop
 1000f39:	90                   	nop
 1000f3a:	90                   	nop
 1000f3b:	90                   	nop
 1000f3c:	90                   	nop
 1000f3d:	90                   	nop
 1000f3e:	90                   	nop
 1000f3f:	90                   	nop
 1000f40:	90                   	nop
 1000f41:	90                   	nop
 1000f42:	90                   	nop
 1000f43:	90                   	nop
 1000f44:	90                   	nop
 1000f45:	90                   	nop
 1000f46:	90                   	nop
 1000f47:	90                   	nop
 1000f48:	90                   	nop
 1000f49:	90                   	nop
 1000f4a:	90                   	nop
 1000f4b:	90                   	nop
 1000f4c:	90                   	nop
 1000f4d:	90                   	nop
 1000f4e:	90                   	nop
 1000f4f:	90                   	nop
 1000f50:	90                   	nop
 1000f51:	90                   	nop
 1000f52:	90                   	nop
 1000f53:	90                   	nop
 1000f54:	90                   	nop
 1000f55:	90                   	nop
 1000f56:	90                   	nop
 1000f57:	90                   	nop
 1000f58:	90                   	nop
 1000f59:	90                   	nop
 1000f5a:	90                   	nop
 1000f5b:	90                   	nop
 1000f5c:	90                   	nop
 1000f5d:	90                   	nop
 1000f5e:	90                   	nop
 1000f5f:	90                   	nop
 1000f60:	90                   	nop
 1000f61:	90                   	nop
 1000f62:	90                   	nop
 1000f63:	90                   	nop
 1000f64:	90                   	nop
 1000f65:	90                   	nop
 1000f66:	90                   	nop
 1000f67:	90                   	nop
 1000f68:	90                   	nop
 1000f69:	90                   	nop
 1000f6a:	90                   	nop
 1000f6b:	90                   	nop
 1000f6c:	90                   	nop
 1000f6d:	90                   	nop
 1000f6e:	90                   	nop
 1000f6f:	90                   	nop
 1000f70:	90                   	nop
 1000f71:	90                   	nop
 1000f72:	90                   	nop
 1000f73:	90                   	nop
 1000f74:	90                   	nop
 1000f75:	90                   	nop
 1000f76:	90                   	nop
 1000f77:	90                   	nop
 1000f78:	90                   	nop
 1000f79:	90                   	nop
 1000f7a:	90                   	nop
 1000f7b:	90                   	nop
 1000f7c:	90                   	nop
 1000f7d:	90                   	nop
 1000f7e:	90                   	nop
 1000f7f:	90                   	nop
 1000f80:	90                   	nop
 1000f81:	90                   	nop
 1000f82:	90                   	nop
 1000f83:	90                   	nop
 1000f84:	90                   	nop
 1000f85:	90                   	nop
 1000f86:	90                   	nop
 1000f87:	90                   	nop
 1000f88:	90                   	nop
 1000f89:	90                   	nop
 1000f8a:	90                   	nop
 1000f8b:	90                   	nop
 1000f8c:	90                   	nop
 1000f8d:	90                   	nop
 1000f8e:	90                   	nop
 1000f8f:	90                   	nop
 1000f90:	90                   	nop
 1000f91:	90                   	nop
 1000f92:	90                   	nop
 1000f93:	90                   	nop
 1000f94:	90                   	nop
 1000f95:	90                   	nop
 1000f96:	90                   	nop
 1000f97:	90                   	nop
 1000f98:	90                   	nop
 1000f99:	90                   	nop
 1000f9a:	90                   	nop
 1000f9b:	90                   	nop
 1000f9c:	90                   	nop
 1000f9d:	90                   	nop
 1000f9e:	90                   	nop
 1000f9f:	90                   	nop
 1000fa0:	90                   	nop
 1000fa1:	90                   	nop
 1000fa2:	90                   	nop
 1000fa3:	90                   	nop
 1000fa4:	90                   	nop
 1000fa5:	90                   	nop
 1000fa6:	90                   	nop
 1000fa7:	90                   	nop
 1000fa8:	90                   	nop
 1000fa9:	90                   	nop
 1000faa:	90                   	nop
 1000fab:	90                   	nop
 1000fac:	90                   	nop
 1000fad:	90                   	nop
 1000fae:	90                   	nop
 1000faf:	90                   	nop
 1000fb0:	90                   	nop
 1000fb1:	90                   	nop
 1000fb2:	90                   	nop
 1000fb3:	90                   	nop
 1000fb4:	90                   	nop
 1000fb5:	90                   	nop
 1000fb6:	90                   	nop
 1000fb7:	90                   	nop
 1000fb8:	90                   	nop
 1000fb9:	90                   	nop
 1000fba:	90                   	nop
 1000fbb:	90                   	nop
 1000fbc:	90                   	nop
 1000fbd:	90                   	nop
 1000fbe:	90                   	nop
 1000fbf:	90                   	nop
 1000fc0:	90                   	nop
 1000fc1:	90                   	nop
 1000fc2:	90                   	nop
 1000fc3:	90                   	nop
 1000fc4:	90                   	nop
 1000fc5:	90                   	nop
 1000fc6:	90                   	nop
 1000fc7:	90                   	nop
 1000fc8:	90                   	nop
 1000fc9:	90                   	nop
 1000fca:	90                   	nop
 1000fcb:	90                   	nop
 1000fcc:	90                   	nop
 1000fcd:	90                   	nop
 1000fce:	90                   	nop
 1000fcf:	90                   	nop
 1000fd0:	90                   	nop
 1000fd1:	90                   	nop
 1000fd2:	90                   	nop
 1000fd3:	90                   	nop
 1000fd4:	90                   	nop
 1000fd5:	90                   	nop
 1000fd6:	90                   	nop
 1000fd7:	90                   	nop
 1000fd8:	90                   	nop
 1000fd9:	90                   	nop
 1000fda:	90                   	nop
 1000fdb:	90                   	nop
 1000fdc:	90                   	nop
 1000fdd:	90                   	nop
 1000fde:	90                   	nop
 1000fdf:	90                   	nop
 1000fe0:	90                   	nop
 1000fe1:	90                   	nop
 1000fe2:	90                   	nop
 1000fe3:	90                   	nop
 1000fe4:	90                   	nop
 1000fe5:	90                   	nop
 1000fe6:	90                   	nop
 1000fe7:	90                   	nop
 1000fe8:	90                   	nop
 1000fe9:	90                   	nop
 1000fea:	90                   	nop
 1000feb:	90                   	nop
 1000fec:	90                   	nop
 1000fed:	90                   	nop
 1000fee:	90                   	nop
 1000fef:	90                   	nop
 1000ff0:	90                   	nop
 1000ff1:	90                   	nop
 1000ff2:	90                   	nop
 1000ff3:	90                   	nop
 1000ff4:	90                   	nop
 1000ff5:	90                   	nop
 1000ff6:	90                   	nop
 1000ff7:	90                   	nop
 1000ff8:	90                   	nop
 1000ff9:	90                   	nop
 1000ffa:	90                   	nop
 1000ffb:	90                   	nop
 1000ffc:	90                   	nop
 1000ffd:	90                   	nop
 1000ffe:	90                   	nop
 1000fff:	90                   	nop

0000000001001000 <PML4_BASE>:
	...

0000000001002000 <PDPT_BASE>:
	...

0000000001003000 <GDT64>:
	...
 100300c:	00 9a 20 00 00 00    	add    BYTE PTR [rdx+0x20],bl
 1003012:	00 00                	add    BYTE PTR [rax],al
 1003014:	00 92 00 00 17 00    	add    BYTE PTR [rdx+0x170000],dl

0000000001003018 <GDT64.GDT64_PTR>:
 1003018:	17                   	(bad)  
 1003019:	00 00                	add    BYTE PTR [rax],al
 100301b:	30 00                	xor    BYTE PTR [rax],al
 100301d:	01 00                	add    DWORD PTR [rax],eax
 100301f:	00 00                	add    BYTE PTR [rax],al
 1003021:	00 90 90 90 90 90    	add    BYTE PTR [rax-0x6f6f6f70],dl
 1003027:	90                   	nop
 1003028:	90                   	nop
 1003029:	90                   	nop
 100302a:	90                   	nop
 100302b:	90                   	nop
 100302c:	90                   	nop
 100302d:	90                   	nop
 100302e:	90                   	nop
 100302f:	90                   	nop
 1003030:	90                   	nop
 1003031:	90                   	nop
 1003032:	90                   	nop
 1003033:	90                   	nop
 1003034:	90                   	nop
 1003035:	90                   	nop
 1003036:	90                   	nop
 1003037:	90                   	nop
 1003038:	90                   	nop
 1003039:	90                   	nop
 100303a:	90                   	nop
 100303b:	90                   	nop
 100303c:	90                   	nop
 100303d:	90                   	nop
 100303e:	90                   	nop
 100303f:	90                   	nop
 1003040:	90                   	nop
 1003041:	90                   	nop
 1003042:	90                   	nop
 1003043:	90                   	nop
 1003044:	90                   	nop
 1003045:	90                   	nop
 1003046:	90                   	nop
 1003047:	90                   	nop
 1003048:	90                   	nop
 1003049:	90                   	nop
 100304a:	90                   	nop
 100304b:	90                   	nop
 100304c:	90                   	nop
 100304d:	90                   	nop
 100304e:	90                   	nop
 100304f:	90                   	nop
 1003050:	90                   	nop
 1003051:	90                   	nop
 1003052:	90                   	nop
 1003053:	90                   	nop
 1003054:	90                   	nop
 1003055:	90                   	nop
 1003056:	90                   	nop
 1003057:	90                   	nop
 1003058:	90                   	nop
 1003059:	90                   	nop
 100305a:	90                   	nop
 100305b:	90                   	nop
 100305c:	90                   	nop
 100305d:	90                   	nop
 100305e:	90                   	nop
 100305f:	90                   	nop
 1003060:	90                   	nop
 1003061:	90                   	nop
 1003062:	90                   	nop
 1003063:	90                   	nop
 1003064:	90                   	nop
 1003065:	90                   	nop
 1003066:	90                   	nop
 1003067:	90                   	nop
 1003068:	90                   	nop
 1003069:	90                   	nop
 100306a:	90                   	nop
 100306b:	90                   	nop
 100306c:	90                   	nop
 100306d:	90                   	nop
 100306e:	90                   	nop
 100306f:	90                   	nop
 1003070:	90                   	nop
 1003071:	90                   	nop
 1003072:	90                   	nop
 1003073:	90                   	nop
 1003074:	90                   	nop
 1003075:	90                   	nop
 1003076:	90                   	nop
 1003077:	90                   	nop
 1003078:	90                   	nop
 1003079:	90                   	nop
 100307a:	90                   	nop
 100307b:	90                   	nop
 100307c:	90                   	nop
 100307d:	90                   	nop
 100307e:	90                   	nop
 100307f:	90                   	nop
 1003080:	90                   	nop
 1003081:	90                   	nop
 1003082:	90                   	nop
 1003083:	90                   	nop
 1003084:	90                   	nop
 1003085:	90                   	nop
 1003086:	90                   	nop
 1003087:	90                   	nop
 1003088:	90                   	nop
 1003089:	90                   	nop
 100308a:	90                   	nop
 100308b:	90                   	nop
 100308c:	90                   	nop
 100308d:	90                   	nop
 100308e:	90                   	nop
 100308f:	90                   	nop
 1003090:	90                   	nop
 1003091:	90                   	nop
 1003092:	90                   	nop
 1003093:	90                   	nop
 1003094:	90                   	nop
 1003095:	90                   	nop
 1003096:	90                   	nop
 1003097:	90                   	nop
 1003098:	90                   	nop
 1003099:	90                   	nop
 100309a:	90                   	nop
 100309b:	90                   	nop
 100309c:	90                   	nop
 100309d:	90                   	nop
 100309e:	90                   	nop
 100309f:	90                   	nop
 10030a0:	90                   	nop
 10030a1:	90                   	nop
 10030a2:	90                   	nop
 10030a3:	90                   	nop
 10030a4:	90                   	nop
 10030a5:	90                   	nop
 10030a6:	90                   	nop
 10030a7:	90                   	nop
 10030a8:	90                   	nop
 10030a9:	90                   	nop
 10030aa:	90                   	nop
 10030ab:	90                   	nop
 10030ac:	90                   	nop
 10030ad:	90                   	nop
 10030ae:	90                   	nop
 10030af:	90                   	nop
 10030b0:	90                   	nop
 10030b1:	90                   	nop
 10030b2:	90                   	nop
 10030b3:	90                   	nop
 10030b4:	90                   	nop
 10030b5:	90                   	nop
 10030b6:	90                   	nop
 10030b7:	90                   	nop
 10030b8:	90                   	nop
 10030b9:	90                   	nop
 10030ba:	90                   	nop
 10030bb:	90                   	nop
 10030bc:	90                   	nop
 10030bd:	90                   	nop
 10030be:	90                   	nop
 10030bf:	90                   	nop
 10030c0:	90                   	nop
 10030c1:	90                   	nop
 10030c2:	90                   	nop
 10030c3:	90                   	nop
 10030c4:	90                   	nop
 10030c5:	90                   	nop
 10030c6:	90                   	nop
 10030c7:	90                   	nop
 10030c8:	90                   	nop
 10030c9:	90                   	nop
 10030ca:	90                   	nop
 10030cb:	90                   	nop
 10030cc:	90                   	nop
 10030cd:	90                   	nop
 10030ce:	90                   	nop
 10030cf:	90                   	nop
 10030d0:	90                   	nop
 10030d1:	90                   	nop
 10030d2:	90                   	nop
 10030d3:	90                   	nop
 10030d4:	90                   	nop
 10030d5:	90                   	nop
 10030d6:	90                   	nop
 10030d7:	90                   	nop
 10030d8:	90                   	nop
 10030d9:	90                   	nop
 10030da:	90                   	nop
 10030db:	90                   	nop
 10030dc:	90                   	nop
 10030dd:	90                   	nop
 10030de:	90                   	nop
 10030df:	90                   	nop
 10030e0:	90                   	nop
 10030e1:	90                   	nop
 10030e2:	90                   	nop
 10030e3:	90                   	nop
 10030e4:	90                   	nop
 10030e5:	90                   	nop
 10030e6:	90                   	nop
 10030e7:	90                   	nop
 10030e8:	90                   	nop
 10030e9:	90                   	nop
 10030ea:	90                   	nop
 10030eb:	90                   	nop
 10030ec:	90                   	nop
 10030ed:	90                   	nop
 10030ee:	90                   	nop
 10030ef:	90                   	nop
 10030f0:	90                   	nop
 10030f1:	90                   	nop
 10030f2:	90                   	nop
 10030f3:	90                   	nop
 10030f4:	90                   	nop
 10030f5:	90                   	nop
 10030f6:	90                   	nop
 10030f7:	90                   	nop
 10030f8:	90                   	nop
 10030f9:	90                   	nop
 10030fa:	90                   	nop
 10030fb:	90                   	nop
 10030fc:	90                   	nop
 10030fd:	90                   	nop
 10030fe:	90                   	nop
 10030ff:	90                   	nop
 1003100:	90                   	nop
 1003101:	90                   	nop
 1003102:	90                   	nop
 1003103:	90                   	nop
 1003104:	90                   	nop
 1003105:	90                   	nop
 1003106:	90                   	nop
 1003107:	90                   	nop
 1003108:	90                   	nop
 1003109:	90                   	nop
 100310a:	90                   	nop
 100310b:	90                   	nop
 100310c:	90                   	nop
 100310d:	90                   	nop
 100310e:	90                   	nop
 100310f:	90                   	nop
 1003110:	90                   	nop
 1003111:	90                   	nop
 1003112:	90                   	nop
 1003113:	90                   	nop
 1003114:	90                   	nop
 1003115:	90                   	nop
 1003116:	90                   	nop
 1003117:	90                   	nop
 1003118:	90                   	nop
 1003119:	90                   	nop
 100311a:	90                   	nop
 100311b:	90                   	nop
 100311c:	90                   	nop
 100311d:	90                   	nop
 100311e:	90                   	nop
 100311f:	90                   	nop
 1003120:	90                   	nop
 1003121:	90                   	nop
 1003122:	90                   	nop
 1003123:	90                   	nop
 1003124:	90                   	nop
 1003125:	90                   	nop
 1003126:	90                   	nop
 1003127:	90                   	nop
 1003128:	90                   	nop
 1003129:	90                   	nop
 100312a:	90                   	nop
 100312b:	90                   	nop
 100312c:	90                   	nop
 100312d:	90                   	nop
 100312e:	90                   	nop
 100312f:	90                   	nop
 1003130:	90                   	nop
 1003131:	90                   	nop
 1003132:	90                   	nop
 1003133:	90                   	nop
 1003134:	90                   	nop
 1003135:	90                   	nop
 1003136:	90                   	nop
 1003137:	90                   	nop
 1003138:	90                   	nop
 1003139:	90                   	nop
 100313a:	90                   	nop
 100313b:	90                   	nop
 100313c:	90                   	nop
 100313d:	90                   	nop
 100313e:	90                   	nop
 100313f:	90                   	nop
 1003140:	90                   	nop
 1003141:	90                   	nop
 1003142:	90                   	nop
 1003143:	90                   	nop
 1003144:	90                   	nop
 1003145:	90                   	nop
 1003146:	90                   	nop
 1003147:	90                   	nop
 1003148:	90                   	nop
 1003149:	90                   	nop
 100314a:	90                   	nop
 100314b:	90                   	nop
 100314c:	90                   	nop
 100314d:	90                   	nop
 100314e:	90                   	nop
 100314f:	90                   	nop
 1003150:	90                   	nop
 1003151:	90                   	nop
 1003152:	90                   	nop
 1003153:	90                   	nop
 1003154:	90                   	nop
 1003155:	90                   	nop
 1003156:	90                   	nop
 1003157:	90                   	nop
 1003158:	90                   	nop
 1003159:	90                   	nop
 100315a:	90                   	nop
 100315b:	90                   	nop
 100315c:	90                   	nop
 100315d:	90                   	nop
 100315e:	90                   	nop
 100315f:	90                   	nop
 1003160:	90                   	nop
 1003161:	90                   	nop
 1003162:	90                   	nop
 1003163:	90                   	nop
 1003164:	90                   	nop
 1003165:	90                   	nop
 1003166:	90                   	nop
 1003167:	90                   	nop
 1003168:	90                   	nop
 1003169:	90                   	nop
 100316a:	90                   	nop
 100316b:	90                   	nop
 100316c:	90                   	nop
 100316d:	90                   	nop
 100316e:	90                   	nop
 100316f:	90                   	nop
 1003170:	90                   	nop
 1003171:	90                   	nop
 1003172:	90                   	nop
 1003173:	90                   	nop
 1003174:	90                   	nop
 1003175:	90                   	nop
 1003176:	90                   	nop
 1003177:	90                   	nop
 1003178:	90                   	nop
 1003179:	90                   	nop
 100317a:	90                   	nop
 100317b:	90                   	nop
 100317c:	90                   	nop
 100317d:	90                   	nop
 100317e:	90                   	nop
 100317f:	90                   	nop
 1003180:	90                   	nop
 1003181:	90                   	nop
 1003182:	90                   	nop
 1003183:	90                   	nop
 1003184:	90                   	nop
 1003185:	90                   	nop
 1003186:	90                   	nop
 1003187:	90                   	nop
 1003188:	90                   	nop
 1003189:	90                   	nop
 100318a:	90                   	nop
 100318b:	90                   	nop
 100318c:	90                   	nop
 100318d:	90                   	nop
 100318e:	90                   	nop
 100318f:	90                   	nop
 1003190:	90                   	nop
 1003191:	90                   	nop
 1003192:	90                   	nop
 1003193:	90                   	nop
 1003194:	90                   	nop
 1003195:	90                   	nop
 1003196:	90                   	nop
 1003197:	90                   	nop
 1003198:	90                   	nop
 1003199:	90                   	nop
 100319a:	90                   	nop
 100319b:	90                   	nop
 100319c:	90                   	nop
 100319d:	90                   	nop
 100319e:	90                   	nop
 100319f:	90                   	nop
 10031a0:	90                   	nop
 10031a1:	90                   	nop
 10031a2:	90                   	nop
 10031a3:	90                   	nop
 10031a4:	90                   	nop
 10031a5:	90                   	nop
 10031a6:	90                   	nop
 10031a7:	90                   	nop
 10031a8:	90                   	nop
 10031a9:	90                   	nop
 10031aa:	90                   	nop
 10031ab:	90                   	nop
 10031ac:	90                   	nop
 10031ad:	90                   	nop
 10031ae:	90                   	nop
 10031af:	90                   	nop
 10031b0:	90                   	nop
 10031b1:	90                   	nop
 10031b2:	90                   	nop
 10031b3:	90                   	nop
 10031b4:	90                   	nop
 10031b5:	90                   	nop
 10031b6:	90                   	nop
 10031b7:	90                   	nop
 10031b8:	90                   	nop
 10031b9:	90                   	nop
 10031ba:	90                   	nop
 10031bb:	90                   	nop
 10031bc:	90                   	nop
 10031bd:	90                   	nop
 10031be:	90                   	nop
 10031bf:	90                   	nop
 10031c0:	90                   	nop
 10031c1:	90                   	nop
 10031c2:	90                   	nop
 10031c3:	90                   	nop
 10031c4:	90                   	nop
 10031c5:	90                   	nop
 10031c6:	90                   	nop
 10031c7:	90                   	nop
 10031c8:	90                   	nop
 10031c9:	90                   	nop
 10031ca:	90                   	nop
 10031cb:	90                   	nop
 10031cc:	90                   	nop
 10031cd:	90                   	nop
 10031ce:	90                   	nop
 10031cf:	90                   	nop
 10031d0:	90                   	nop
 10031d1:	90                   	nop
 10031d2:	90                   	nop
 10031d3:	90                   	nop
 10031d4:	90                   	nop
 10031d5:	90                   	nop
 10031d6:	90                   	nop
 10031d7:	90                   	nop
 10031d8:	90                   	nop
 10031d9:	90                   	nop
 10031da:	90                   	nop
 10031db:	90                   	nop
 10031dc:	90                   	nop
 10031dd:	90                   	nop
 10031de:	90                   	nop
 10031df:	90                   	nop
 10031e0:	90                   	nop
 10031e1:	90                   	nop
 10031e2:	90                   	nop
 10031e3:	90                   	nop
 10031e4:	90                   	nop
 10031e5:	90                   	nop
 10031e6:	90                   	nop
 10031e7:	90                   	nop
 10031e8:	90                   	nop
 10031e9:	90                   	nop
 10031ea:	90                   	nop
 10031eb:	90                   	nop
 10031ec:	90                   	nop
 10031ed:	90                   	nop
 10031ee:	90                   	nop
 10031ef:	90                   	nop
 10031f0:	90                   	nop
 10031f1:	90                   	nop
 10031f2:	90                   	nop
 10031f3:	90                   	nop
 10031f4:	90                   	nop
 10031f5:	90                   	nop
 10031f6:	90                   	nop
 10031f7:	90                   	nop
 10031f8:	90                   	nop
 10031f9:	90                   	nop
 10031fa:	90                   	nop
 10031fb:	90                   	nop
 10031fc:	90                   	nop
 10031fd:	90                   	nop
 10031fe:	90                   	nop
 10031ff:	90                   	nop
 1003200:	90                   	nop
 1003201:	90                   	nop
 1003202:	90                   	nop
 1003203:	90                   	nop
 1003204:	90                   	nop
 1003205:	90                   	nop
 1003206:	90                   	nop
 1003207:	90                   	nop
 1003208:	90                   	nop
 1003209:	90                   	nop
 100320a:	90                   	nop
 100320b:	90                   	nop
 100320c:	90                   	nop
 100320d:	90                   	nop
 100320e:	90                   	nop
 100320f:	90                   	nop
 1003210:	90                   	nop
 1003211:	90                   	nop
 1003212:	90                   	nop
 1003213:	90                   	nop
 1003214:	90                   	nop
 1003215:	90                   	nop
 1003216:	90                   	nop
 1003217:	90                   	nop
 1003218:	90                   	nop
 1003219:	90                   	nop
 100321a:	90                   	nop
 100321b:	90                   	nop
 100321c:	90                   	nop
 100321d:	90                   	nop
 100321e:	90                   	nop
 100321f:	90                   	nop
 1003220:	90                   	nop
 1003221:	90                   	nop
 1003222:	90                   	nop
 1003223:	90                   	nop
 1003224:	90                   	nop
 1003225:	90                   	nop
 1003226:	90                   	nop
 1003227:	90                   	nop
 1003228:	90                   	nop
 1003229:	90                   	nop
 100322a:	90                   	nop
 100322b:	90                   	nop
 100322c:	90                   	nop
 100322d:	90                   	nop
 100322e:	90                   	nop
 100322f:	90                   	nop
 1003230:	90                   	nop
 1003231:	90                   	nop
 1003232:	90                   	nop
 1003233:	90                   	nop
 1003234:	90                   	nop
 1003235:	90                   	nop
 1003236:	90                   	nop
 1003237:	90                   	nop
 1003238:	90                   	nop
 1003239:	90                   	nop
 100323a:	90                   	nop
 100323b:	90                   	nop
 100323c:	90                   	nop
 100323d:	90                   	nop
 100323e:	90                   	nop
 100323f:	90                   	nop
 1003240:	90                   	nop
 1003241:	90                   	nop
 1003242:	90                   	nop
 1003243:	90                   	nop
 1003244:	90                   	nop
 1003245:	90                   	nop
 1003246:	90                   	nop
 1003247:	90                   	nop
 1003248:	90                   	nop
 1003249:	90                   	nop
 100324a:	90                   	nop
 100324b:	90                   	nop
 100324c:	90                   	nop
 100324d:	90                   	nop
 100324e:	90                   	nop
 100324f:	90                   	nop
 1003250:	90                   	nop
 1003251:	90                   	nop
 1003252:	90                   	nop
 1003253:	90                   	nop
 1003254:	90                   	nop
 1003255:	90                   	nop
 1003256:	90                   	nop
 1003257:	90                   	nop
 1003258:	90                   	nop
 1003259:	90                   	nop
 100325a:	90                   	nop
 100325b:	90                   	nop
 100325c:	90                   	nop
 100325d:	90                   	nop
 100325e:	90                   	nop
 100325f:	90                   	nop
 1003260:	90                   	nop
 1003261:	90                   	nop
 1003262:	90                   	nop
 1003263:	90                   	nop
 1003264:	90                   	nop
 1003265:	90                   	nop
 1003266:	90                   	nop
 1003267:	90                   	nop
 1003268:	90                   	nop
 1003269:	90                   	nop
 100326a:	90                   	nop
 100326b:	90                   	nop
 100326c:	90                   	nop
 100326d:	90                   	nop
 100326e:	90                   	nop
 100326f:	90                   	nop
 1003270:	90                   	nop
 1003271:	90                   	nop
 1003272:	90                   	nop
 1003273:	90                   	nop
 1003274:	90                   	nop
 1003275:	90                   	nop
 1003276:	90                   	nop
 1003277:	90                   	nop
 1003278:	90                   	nop
 1003279:	90                   	nop
 100327a:	90                   	nop
 100327b:	90                   	nop
 100327c:	90                   	nop
 100327d:	90                   	nop
 100327e:	90                   	nop
 100327f:	90                   	nop
 1003280:	90                   	nop
 1003281:	90                   	nop
 1003282:	90                   	nop
 1003283:	90                   	nop
 1003284:	90                   	nop
 1003285:	90                   	nop
 1003286:	90                   	nop
 1003287:	90                   	nop
 1003288:	90                   	nop
 1003289:	90                   	nop
 100328a:	90                   	nop
 100328b:	90                   	nop
 100328c:	90                   	nop
 100328d:	90                   	nop
 100328e:	90                   	nop
 100328f:	90                   	nop
 1003290:	90                   	nop
 1003291:	90                   	nop
 1003292:	90                   	nop
 1003293:	90                   	nop
 1003294:	90                   	nop
 1003295:	90                   	nop
 1003296:	90                   	nop
 1003297:	90                   	nop
 1003298:	90                   	nop
 1003299:	90                   	nop
 100329a:	90                   	nop
 100329b:	90                   	nop
 100329c:	90                   	nop
 100329d:	90                   	nop
 100329e:	90                   	nop
 100329f:	90                   	nop
 10032a0:	90                   	nop
 10032a1:	90                   	nop
 10032a2:	90                   	nop
 10032a3:	90                   	nop
 10032a4:	90                   	nop
 10032a5:	90                   	nop
 10032a6:	90                   	nop
 10032a7:	90                   	nop
 10032a8:	90                   	nop
 10032a9:	90                   	nop
 10032aa:	90                   	nop
 10032ab:	90                   	nop
 10032ac:	90                   	nop
 10032ad:	90                   	nop
 10032ae:	90                   	nop
 10032af:	90                   	nop
 10032b0:	90                   	nop
 10032b1:	90                   	nop
 10032b2:	90                   	nop
 10032b3:	90                   	nop
 10032b4:	90                   	nop
 10032b5:	90                   	nop
 10032b6:	90                   	nop
 10032b7:	90                   	nop
 10032b8:	90                   	nop
 10032b9:	90                   	nop
 10032ba:	90                   	nop
 10032bb:	90                   	nop
 10032bc:	90                   	nop
 10032bd:	90                   	nop
 10032be:	90                   	nop
 10032bf:	90                   	nop
 10032c0:	90                   	nop
 10032c1:	90                   	nop
 10032c2:	90                   	nop
 10032c3:	90                   	nop
 10032c4:	90                   	nop
 10032c5:	90                   	nop
 10032c6:	90                   	nop
 10032c7:	90                   	nop
 10032c8:	90                   	nop
 10032c9:	90                   	nop
 10032ca:	90                   	nop
 10032cb:	90                   	nop
 10032cc:	90                   	nop
 10032cd:	90                   	nop
 10032ce:	90                   	nop
 10032cf:	90                   	nop
 10032d0:	90                   	nop
 10032d1:	90                   	nop
 10032d2:	90                   	nop
 10032d3:	90                   	nop
 10032d4:	90                   	nop
 10032d5:	90                   	nop
 10032d6:	90                   	nop
 10032d7:	90                   	nop
 10032d8:	90                   	nop
 10032d9:	90                   	nop
 10032da:	90                   	nop
 10032db:	90                   	nop
 10032dc:	90                   	nop
 10032dd:	90                   	nop
 10032de:	90                   	nop
 10032df:	90                   	nop
 10032e0:	90                   	nop
 10032e1:	90                   	nop
 10032e2:	90                   	nop
 10032e3:	90                   	nop
 10032e4:	90                   	nop
 10032e5:	90                   	nop
 10032e6:	90                   	nop
 10032e7:	90                   	nop
 10032e8:	90                   	nop
 10032e9:	90                   	nop
 10032ea:	90                   	nop
 10032eb:	90                   	nop
 10032ec:	90                   	nop
 10032ed:	90                   	nop
 10032ee:	90                   	nop
 10032ef:	90                   	nop
 10032f0:	90                   	nop
 10032f1:	90                   	nop
 10032f2:	90                   	nop
 10032f3:	90                   	nop
 10032f4:	90                   	nop
 10032f5:	90                   	nop
 10032f6:	90                   	nop
 10032f7:	90                   	nop
 10032f8:	90                   	nop
 10032f9:	90                   	nop
 10032fa:	90                   	nop
 10032fb:	90                   	nop
 10032fc:	90                   	nop
 10032fd:	90                   	nop
 10032fe:	90                   	nop
 10032ff:	90                   	nop
 1003300:	90                   	nop
 1003301:	90                   	nop
 1003302:	90                   	nop
 1003303:	90                   	nop
 1003304:	90                   	nop
 1003305:	90                   	nop
 1003306:	90                   	nop
 1003307:	90                   	nop
 1003308:	90                   	nop
 1003309:	90                   	nop
 100330a:	90                   	nop
 100330b:	90                   	nop
 100330c:	90                   	nop
 100330d:	90                   	nop
 100330e:	90                   	nop
 100330f:	90                   	nop
 1003310:	90                   	nop
 1003311:	90                   	nop
 1003312:	90                   	nop
 1003313:	90                   	nop
 1003314:	90                   	nop
 1003315:	90                   	nop
 1003316:	90                   	nop
 1003317:	90                   	nop
 1003318:	90                   	nop
 1003319:	90                   	nop
 100331a:	90                   	nop
 100331b:	90                   	nop
 100331c:	90                   	nop
 100331d:	90                   	nop
 100331e:	90                   	nop
 100331f:	90                   	nop
 1003320:	90                   	nop
 1003321:	90                   	nop
 1003322:	90                   	nop
 1003323:	90                   	nop
 1003324:	90                   	nop
 1003325:	90                   	nop
 1003326:	90                   	nop
 1003327:	90                   	nop
 1003328:	90                   	nop
 1003329:	90                   	nop
 100332a:	90                   	nop
 100332b:	90                   	nop
 100332c:	90                   	nop
 100332d:	90                   	nop
 100332e:	90                   	nop
 100332f:	90                   	nop
 1003330:	90                   	nop
 1003331:	90                   	nop
 1003332:	90                   	nop
 1003333:	90                   	nop
 1003334:	90                   	nop
 1003335:	90                   	nop
 1003336:	90                   	nop
 1003337:	90                   	nop
 1003338:	90                   	nop
 1003339:	90                   	nop
 100333a:	90                   	nop
 100333b:	90                   	nop
 100333c:	90                   	nop
 100333d:	90                   	nop
 100333e:	90                   	nop
 100333f:	90                   	nop
 1003340:	90                   	nop
 1003341:	90                   	nop
 1003342:	90                   	nop
 1003343:	90                   	nop
 1003344:	90                   	nop
 1003345:	90                   	nop
 1003346:	90                   	nop
 1003347:	90                   	nop
 1003348:	90                   	nop
 1003349:	90                   	nop
 100334a:	90                   	nop
 100334b:	90                   	nop
 100334c:	90                   	nop
 100334d:	90                   	nop
 100334e:	90                   	nop
 100334f:	90                   	nop
 1003350:	90                   	nop
 1003351:	90                   	nop
 1003352:	90                   	nop
 1003353:	90                   	nop
 1003354:	90                   	nop
 1003355:	90                   	nop
 1003356:	90                   	nop
 1003357:	90                   	nop
 1003358:	90                   	nop
 1003359:	90                   	nop
 100335a:	90                   	nop
 100335b:	90                   	nop
 100335c:	90                   	nop
 100335d:	90                   	nop
 100335e:	90                   	nop
 100335f:	90                   	nop
 1003360:	90                   	nop
 1003361:	90                   	nop
 1003362:	90                   	nop
 1003363:	90                   	nop
 1003364:	90                   	nop
 1003365:	90                   	nop
 1003366:	90                   	nop
 1003367:	90                   	nop
 1003368:	90                   	nop
 1003369:	90                   	nop
 100336a:	90                   	nop
 100336b:	90                   	nop
 100336c:	90                   	nop
 100336d:	90                   	nop
 100336e:	90                   	nop
 100336f:	90                   	nop
 1003370:	90                   	nop
 1003371:	90                   	nop
 1003372:	90                   	nop
 1003373:	90                   	nop
 1003374:	90                   	nop
 1003375:	90                   	nop
 1003376:	90                   	nop
 1003377:	90                   	nop
 1003378:	90                   	nop
 1003379:	90                   	nop
 100337a:	90                   	nop
 100337b:	90                   	nop
 100337c:	90                   	nop
 100337d:	90                   	nop
 100337e:	90                   	nop
 100337f:	90                   	nop
 1003380:	90                   	nop
 1003381:	90                   	nop
 1003382:	90                   	nop
 1003383:	90                   	nop
 1003384:	90                   	nop
 1003385:	90                   	nop
 1003386:	90                   	nop
 1003387:	90                   	nop
 1003388:	90                   	nop
 1003389:	90                   	nop
 100338a:	90                   	nop
 100338b:	90                   	nop
 100338c:	90                   	nop
 100338d:	90                   	nop
 100338e:	90                   	nop
 100338f:	90                   	nop
 1003390:	90                   	nop
 1003391:	90                   	nop
 1003392:	90                   	nop
 1003393:	90                   	nop
 1003394:	90                   	nop
 1003395:	90                   	nop
 1003396:	90                   	nop
 1003397:	90                   	nop
 1003398:	90                   	nop
 1003399:	90                   	nop
 100339a:	90                   	nop
 100339b:	90                   	nop
 100339c:	90                   	nop
 100339d:	90                   	nop
 100339e:	90                   	nop
 100339f:	90                   	nop
 10033a0:	90                   	nop
 10033a1:	90                   	nop
 10033a2:	90                   	nop
 10033a3:	90                   	nop
 10033a4:	90                   	nop
 10033a5:	90                   	nop
 10033a6:	90                   	nop
 10033a7:	90                   	nop
 10033a8:	90                   	nop
 10033a9:	90                   	nop
 10033aa:	90                   	nop
 10033ab:	90                   	nop
 10033ac:	90                   	nop
 10033ad:	90                   	nop
 10033ae:	90                   	nop
 10033af:	90                   	nop
 10033b0:	90                   	nop
 10033b1:	90                   	nop
 10033b2:	90                   	nop
 10033b3:	90                   	nop
 10033b4:	90                   	nop
 10033b5:	90                   	nop
 10033b6:	90                   	nop
 10033b7:	90                   	nop
 10033b8:	90                   	nop
 10033b9:	90                   	nop
 10033ba:	90                   	nop
 10033bb:	90                   	nop
 10033bc:	90                   	nop
 10033bd:	90                   	nop
 10033be:	90                   	nop
 10033bf:	90                   	nop
 10033c0:	90                   	nop
 10033c1:	90                   	nop
 10033c2:	90                   	nop
 10033c3:	90                   	nop
 10033c4:	90                   	nop
 10033c5:	90                   	nop
 10033c6:	90                   	nop
 10033c7:	90                   	nop
 10033c8:	90                   	nop
 10033c9:	90                   	nop
 10033ca:	90                   	nop
 10033cb:	90                   	nop
 10033cc:	90                   	nop
 10033cd:	90                   	nop
 10033ce:	90                   	nop
 10033cf:	90                   	nop
 10033d0:	90                   	nop
 10033d1:	90                   	nop
 10033d2:	90                   	nop
 10033d3:	90                   	nop
 10033d4:	90                   	nop
 10033d5:	90                   	nop
 10033d6:	90                   	nop
 10033d7:	90                   	nop
 10033d8:	90                   	nop
 10033d9:	90                   	nop
 10033da:	90                   	nop
 10033db:	90                   	nop
 10033dc:	90                   	nop
 10033dd:	90                   	nop
 10033de:	90                   	nop
 10033df:	90                   	nop
 10033e0:	90                   	nop
 10033e1:	90                   	nop
 10033e2:	90                   	nop
 10033e3:	90                   	nop
 10033e4:	90                   	nop
 10033e5:	90                   	nop
 10033e6:	90                   	nop
 10033e7:	90                   	nop
 10033e8:	90                   	nop
 10033e9:	90                   	nop
 10033ea:	90                   	nop
 10033eb:	90                   	nop
 10033ec:	90                   	nop
 10033ed:	90                   	nop
 10033ee:	90                   	nop
 10033ef:	90                   	nop
 10033f0:	90                   	nop
 10033f1:	90                   	nop
 10033f2:	90                   	nop
 10033f3:	90                   	nop
 10033f4:	90                   	nop
 10033f5:	90                   	nop
 10033f6:	90                   	nop
 10033f7:	90                   	nop
 10033f8:	90                   	nop
 10033f9:	90                   	nop
 10033fa:	90                   	nop
 10033fb:	90                   	nop
 10033fc:	90                   	nop
 10033fd:	90                   	nop
 10033fe:	90                   	nop
 10033ff:	90                   	nop
 1003400:	90                   	nop
 1003401:	90                   	nop
 1003402:	90                   	nop
 1003403:	90                   	nop
 1003404:	90                   	nop
 1003405:	90                   	nop
 1003406:	90                   	nop
 1003407:	90                   	nop
 1003408:	90                   	nop
 1003409:	90                   	nop
 100340a:	90                   	nop
 100340b:	90                   	nop
 100340c:	90                   	nop
 100340d:	90                   	nop
 100340e:	90                   	nop
 100340f:	90                   	nop
 1003410:	90                   	nop
 1003411:	90                   	nop
 1003412:	90                   	nop
 1003413:	90                   	nop
 1003414:	90                   	nop
 1003415:	90                   	nop
 1003416:	90                   	nop
 1003417:	90                   	nop
 1003418:	90                   	nop
 1003419:	90                   	nop
 100341a:	90                   	nop
 100341b:	90                   	nop
 100341c:	90                   	nop
 100341d:	90                   	nop
 100341e:	90                   	nop
 100341f:	90                   	nop
 1003420:	90                   	nop
 1003421:	90                   	nop
 1003422:	90                   	nop
 1003423:	90                   	nop
 1003424:	90                   	nop
 1003425:	90                   	nop
 1003426:	90                   	nop
 1003427:	90                   	nop
 1003428:	90                   	nop
 1003429:	90                   	nop
 100342a:	90                   	nop
 100342b:	90                   	nop
 100342c:	90                   	nop
 100342d:	90                   	nop
 100342e:	90                   	nop
 100342f:	90                   	nop
 1003430:	90                   	nop
 1003431:	90                   	nop
 1003432:	90                   	nop
 1003433:	90                   	nop
 1003434:	90                   	nop
 1003435:	90                   	nop
 1003436:	90                   	nop
 1003437:	90                   	nop
 1003438:	90                   	nop
 1003439:	90                   	nop
 100343a:	90                   	nop
 100343b:	90                   	nop
 100343c:	90                   	nop
 100343d:	90                   	nop
 100343e:	90                   	nop
 100343f:	90                   	nop
 1003440:	90                   	nop
 1003441:	90                   	nop
 1003442:	90                   	nop
 1003443:	90                   	nop
 1003444:	90                   	nop
 1003445:	90                   	nop
 1003446:	90                   	nop
 1003447:	90                   	nop
 1003448:	90                   	nop
 1003449:	90                   	nop
 100344a:	90                   	nop
 100344b:	90                   	nop
 100344c:	90                   	nop
 100344d:	90                   	nop
 100344e:	90                   	nop
 100344f:	90                   	nop
 1003450:	90                   	nop
 1003451:	90                   	nop
 1003452:	90                   	nop
 1003453:	90                   	nop
 1003454:	90                   	nop
 1003455:	90                   	nop
 1003456:	90                   	nop
 1003457:	90                   	nop
 1003458:	90                   	nop
 1003459:	90                   	nop
 100345a:	90                   	nop
 100345b:	90                   	nop
 100345c:	90                   	nop
 100345d:	90                   	nop
 100345e:	90                   	nop
 100345f:	90                   	nop
 1003460:	90                   	nop
 1003461:	90                   	nop
 1003462:	90                   	nop
 1003463:	90                   	nop
 1003464:	90                   	nop
 1003465:	90                   	nop
 1003466:	90                   	nop
 1003467:	90                   	nop
 1003468:	90                   	nop
 1003469:	90                   	nop
 100346a:	90                   	nop
 100346b:	90                   	nop
 100346c:	90                   	nop
 100346d:	90                   	nop
 100346e:	90                   	nop
 100346f:	90                   	nop
 1003470:	90                   	nop
 1003471:	90                   	nop
 1003472:	90                   	nop
 1003473:	90                   	nop
 1003474:	90                   	nop
 1003475:	90                   	nop
 1003476:	90                   	nop
 1003477:	90                   	nop
 1003478:	90                   	nop
 1003479:	90                   	nop
 100347a:	90                   	nop
 100347b:	90                   	nop
 100347c:	90                   	nop
 100347d:	90                   	nop
 100347e:	90                   	nop
 100347f:	90                   	nop
 1003480:	90                   	nop
 1003481:	90                   	nop
 1003482:	90                   	nop
 1003483:	90                   	nop
 1003484:	90                   	nop
 1003485:	90                   	nop
 1003486:	90                   	nop
 1003487:	90                   	nop
 1003488:	90                   	nop
 1003489:	90                   	nop
 100348a:	90                   	nop
 100348b:	90                   	nop
 100348c:	90                   	nop
 100348d:	90                   	nop
 100348e:	90                   	nop
 100348f:	90                   	nop
 1003490:	90                   	nop
 1003491:	90                   	nop
 1003492:	90                   	nop
 1003493:	90                   	nop
 1003494:	90                   	nop
 1003495:	90                   	nop
 1003496:	90                   	nop
 1003497:	90                   	nop
 1003498:	90                   	nop
 1003499:	90                   	nop
 100349a:	90                   	nop
 100349b:	90                   	nop
 100349c:	90                   	nop
 100349d:	90                   	nop
 100349e:	90                   	nop
 100349f:	90                   	nop
 10034a0:	90                   	nop
 10034a1:	90                   	nop
 10034a2:	90                   	nop
 10034a3:	90                   	nop
 10034a4:	90                   	nop
 10034a5:	90                   	nop
 10034a6:	90                   	nop
 10034a7:	90                   	nop
 10034a8:	90                   	nop
 10034a9:	90                   	nop
 10034aa:	90                   	nop
 10034ab:	90                   	nop
 10034ac:	90                   	nop
 10034ad:	90                   	nop
 10034ae:	90                   	nop
 10034af:	90                   	nop
 10034b0:	90                   	nop
 10034b1:	90                   	nop
 10034b2:	90                   	nop
 10034b3:	90                   	nop
 10034b4:	90                   	nop
 10034b5:	90                   	nop
 10034b6:	90                   	nop
 10034b7:	90                   	nop
 10034b8:	90                   	nop
 10034b9:	90                   	nop
 10034ba:	90                   	nop
 10034bb:	90                   	nop
 10034bc:	90                   	nop
 10034bd:	90                   	nop
 10034be:	90                   	nop
 10034bf:	90                   	nop
 10034c0:	90                   	nop
 10034c1:	90                   	nop
 10034c2:	90                   	nop
 10034c3:	90                   	nop
 10034c4:	90                   	nop
 10034c5:	90                   	nop
 10034c6:	90                   	nop
 10034c7:	90                   	nop
 10034c8:	90                   	nop
 10034c9:	90                   	nop
 10034ca:	90                   	nop
 10034cb:	90                   	nop
 10034cc:	90                   	nop
 10034cd:	90                   	nop
 10034ce:	90                   	nop
 10034cf:	90                   	nop
 10034d0:	90                   	nop
 10034d1:	90                   	nop
 10034d2:	90                   	nop
 10034d3:	90                   	nop
 10034d4:	90                   	nop
 10034d5:	90                   	nop
 10034d6:	90                   	nop
 10034d7:	90                   	nop
 10034d8:	90                   	nop
 10034d9:	90                   	nop
 10034da:	90                   	nop
 10034db:	90                   	nop
 10034dc:	90                   	nop
 10034dd:	90                   	nop
 10034de:	90                   	nop
 10034df:	90                   	nop
 10034e0:	90                   	nop
 10034e1:	90                   	nop
 10034e2:	90                   	nop
 10034e3:	90                   	nop
 10034e4:	90                   	nop
 10034e5:	90                   	nop
 10034e6:	90                   	nop
 10034e7:	90                   	nop
 10034e8:	90                   	nop
 10034e9:	90                   	nop
 10034ea:	90                   	nop
 10034eb:	90                   	nop
 10034ec:	90                   	nop
 10034ed:	90                   	nop
 10034ee:	90                   	nop
 10034ef:	90                   	nop
 10034f0:	90                   	nop
 10034f1:	90                   	nop
 10034f2:	90                   	nop
 10034f3:	90                   	nop
 10034f4:	90                   	nop
 10034f5:	90                   	nop
 10034f6:	90                   	nop
 10034f7:	90                   	nop
 10034f8:	90                   	nop
 10034f9:	90                   	nop
 10034fa:	90                   	nop
 10034fb:	90                   	nop
 10034fc:	90                   	nop
 10034fd:	90                   	nop
 10034fe:	90                   	nop
 10034ff:	90                   	nop
 1003500:	90                   	nop
 1003501:	90                   	nop
 1003502:	90                   	nop
 1003503:	90                   	nop
 1003504:	90                   	nop
 1003505:	90                   	nop
 1003506:	90                   	nop
 1003507:	90                   	nop
 1003508:	90                   	nop
 1003509:	90                   	nop
 100350a:	90                   	nop
 100350b:	90                   	nop
 100350c:	90                   	nop
 100350d:	90                   	nop
 100350e:	90                   	nop
 100350f:	90                   	nop
 1003510:	90                   	nop
 1003511:	90                   	nop
 1003512:	90                   	nop
 1003513:	90                   	nop
 1003514:	90                   	nop
 1003515:	90                   	nop
 1003516:	90                   	nop
 1003517:	90                   	nop
 1003518:	90                   	nop
 1003519:	90                   	nop
 100351a:	90                   	nop
 100351b:	90                   	nop
 100351c:	90                   	nop
 100351d:	90                   	nop
 100351e:	90                   	nop
 100351f:	90                   	nop
 1003520:	90                   	nop
 1003521:	90                   	nop
 1003522:	90                   	nop
 1003523:	90                   	nop
 1003524:	90                   	nop
 1003525:	90                   	nop
 1003526:	90                   	nop
 1003527:	90                   	nop
 1003528:	90                   	nop
 1003529:	90                   	nop
 100352a:	90                   	nop
 100352b:	90                   	nop
 100352c:	90                   	nop
 100352d:	90                   	nop
 100352e:	90                   	nop
 100352f:	90                   	nop
 1003530:	90                   	nop
 1003531:	90                   	nop
 1003532:	90                   	nop
 1003533:	90                   	nop
 1003534:	90                   	nop
 1003535:	90                   	nop
 1003536:	90                   	nop
 1003537:	90                   	nop
 1003538:	90                   	nop
 1003539:	90                   	nop
 100353a:	90                   	nop
 100353b:	90                   	nop
 100353c:	90                   	nop
 100353d:	90                   	nop
 100353e:	90                   	nop
 100353f:	90                   	nop
 1003540:	90                   	nop
 1003541:	90                   	nop
 1003542:	90                   	nop
 1003543:	90                   	nop
 1003544:	90                   	nop
 1003545:	90                   	nop
 1003546:	90                   	nop
 1003547:	90                   	nop
 1003548:	90                   	nop
 1003549:	90                   	nop
 100354a:	90                   	nop
 100354b:	90                   	nop
 100354c:	90                   	nop
 100354d:	90                   	nop
 100354e:	90                   	nop
 100354f:	90                   	nop
 1003550:	90                   	nop
 1003551:	90                   	nop
 1003552:	90                   	nop
 1003553:	90                   	nop
 1003554:	90                   	nop
 1003555:	90                   	nop
 1003556:	90                   	nop
 1003557:	90                   	nop
 1003558:	90                   	nop
 1003559:	90                   	nop
 100355a:	90                   	nop
 100355b:	90                   	nop
 100355c:	90                   	nop
 100355d:	90                   	nop
 100355e:	90                   	nop
 100355f:	90                   	nop
 1003560:	90                   	nop
 1003561:	90                   	nop
 1003562:	90                   	nop
 1003563:	90                   	nop
 1003564:	90                   	nop
 1003565:	90                   	nop
 1003566:	90                   	nop
 1003567:	90                   	nop
 1003568:	90                   	nop
 1003569:	90                   	nop
 100356a:	90                   	nop
 100356b:	90                   	nop
 100356c:	90                   	nop
 100356d:	90                   	nop
 100356e:	90                   	nop
 100356f:	90                   	nop
 1003570:	90                   	nop
 1003571:	90                   	nop
 1003572:	90                   	nop
 1003573:	90                   	nop
 1003574:	90                   	nop
 1003575:	90                   	nop
 1003576:	90                   	nop
 1003577:	90                   	nop
 1003578:	90                   	nop
 1003579:	90                   	nop
 100357a:	90                   	nop
 100357b:	90                   	nop
 100357c:	90                   	nop
 100357d:	90                   	nop
 100357e:	90                   	nop
 100357f:	90                   	nop
 1003580:	90                   	nop
 1003581:	90                   	nop
 1003582:	90                   	nop
 1003583:	90                   	nop
 1003584:	90                   	nop
 1003585:	90                   	nop
 1003586:	90                   	nop
 1003587:	90                   	nop
 1003588:	90                   	nop
 1003589:	90                   	nop
 100358a:	90                   	nop
 100358b:	90                   	nop
 100358c:	90                   	nop
 100358d:	90                   	nop
 100358e:	90                   	nop
 100358f:	90                   	nop
 1003590:	90                   	nop
 1003591:	90                   	nop
 1003592:	90                   	nop
 1003593:	90                   	nop
 1003594:	90                   	nop
 1003595:	90                   	nop
 1003596:	90                   	nop
 1003597:	90                   	nop
 1003598:	90                   	nop
 1003599:	90                   	nop
 100359a:	90                   	nop
 100359b:	90                   	nop
 100359c:	90                   	nop
 100359d:	90                   	nop
 100359e:	90                   	nop
 100359f:	90                   	nop
 10035a0:	90                   	nop
 10035a1:	90                   	nop
 10035a2:	90                   	nop
 10035a3:	90                   	nop
 10035a4:	90                   	nop
 10035a5:	90                   	nop
 10035a6:	90                   	nop
 10035a7:	90                   	nop
 10035a8:	90                   	nop
 10035a9:	90                   	nop
 10035aa:	90                   	nop
 10035ab:	90                   	nop
 10035ac:	90                   	nop
 10035ad:	90                   	nop
 10035ae:	90                   	nop
 10035af:	90                   	nop
 10035b0:	90                   	nop
 10035b1:	90                   	nop
 10035b2:	90                   	nop
 10035b3:	90                   	nop
 10035b4:	90                   	nop
 10035b5:	90                   	nop
 10035b6:	90                   	nop
 10035b7:	90                   	nop
 10035b8:	90                   	nop
 10035b9:	90                   	nop
 10035ba:	90                   	nop
 10035bb:	90                   	nop
 10035bc:	90                   	nop
 10035bd:	90                   	nop
 10035be:	90                   	nop
 10035bf:	90                   	nop
 10035c0:	90                   	nop
 10035c1:	90                   	nop
 10035c2:	90                   	nop
 10035c3:	90                   	nop
 10035c4:	90                   	nop
 10035c5:	90                   	nop
 10035c6:	90                   	nop
 10035c7:	90                   	nop
 10035c8:	90                   	nop
 10035c9:	90                   	nop
 10035ca:	90                   	nop
 10035cb:	90                   	nop
 10035cc:	90                   	nop
 10035cd:	90                   	nop
 10035ce:	90                   	nop
 10035cf:	90                   	nop
 10035d0:	90                   	nop
 10035d1:	90                   	nop
 10035d2:	90                   	nop
 10035d3:	90                   	nop
 10035d4:	90                   	nop
 10035d5:	90                   	nop
 10035d6:	90                   	nop
 10035d7:	90                   	nop
 10035d8:	90                   	nop
 10035d9:	90                   	nop
 10035da:	90                   	nop
 10035db:	90                   	nop
 10035dc:	90                   	nop
 10035dd:	90                   	nop
 10035de:	90                   	nop
 10035df:	90                   	nop
 10035e0:	90                   	nop
 10035e1:	90                   	nop
 10035e2:	90                   	nop
 10035e3:	90                   	nop
 10035e4:	90                   	nop
 10035e5:	90                   	nop
 10035e6:	90                   	nop
 10035e7:	90                   	nop
 10035e8:	90                   	nop
 10035e9:	90                   	nop
 10035ea:	90                   	nop
 10035eb:	90                   	nop
 10035ec:	90                   	nop
 10035ed:	90                   	nop
 10035ee:	90                   	nop
 10035ef:	90                   	nop
 10035f0:	90                   	nop
 10035f1:	90                   	nop
 10035f2:	90                   	nop
 10035f3:	90                   	nop
 10035f4:	90                   	nop
 10035f5:	90                   	nop
 10035f6:	90                   	nop
 10035f7:	90                   	nop
 10035f8:	90                   	nop
 10035f9:	90                   	nop
 10035fa:	90                   	nop
 10035fb:	90                   	nop
 10035fc:	90                   	nop
 10035fd:	90                   	nop
 10035fe:	90                   	nop
 10035ff:	90                   	nop
 1003600:	90                   	nop
 1003601:	90                   	nop
 1003602:	90                   	nop
 1003603:	90                   	nop
 1003604:	90                   	nop
 1003605:	90                   	nop
 1003606:	90                   	nop
 1003607:	90                   	nop
 1003608:	90                   	nop
 1003609:	90                   	nop
 100360a:	90                   	nop
 100360b:	90                   	nop
 100360c:	90                   	nop
 100360d:	90                   	nop
 100360e:	90                   	nop
 100360f:	90                   	nop
 1003610:	90                   	nop
 1003611:	90                   	nop
 1003612:	90                   	nop
 1003613:	90                   	nop
 1003614:	90                   	nop
 1003615:	90                   	nop
 1003616:	90                   	nop
 1003617:	90                   	nop
 1003618:	90                   	nop
 1003619:	90                   	nop
 100361a:	90                   	nop
 100361b:	90                   	nop
 100361c:	90                   	nop
 100361d:	90                   	nop
 100361e:	90                   	nop
 100361f:	90                   	nop
 1003620:	90                   	nop
 1003621:	90                   	nop
 1003622:	90                   	nop
 1003623:	90                   	nop
 1003624:	90                   	nop
 1003625:	90                   	nop
 1003626:	90                   	nop
 1003627:	90                   	nop
 1003628:	90                   	nop
 1003629:	90                   	nop
 100362a:	90                   	nop
 100362b:	90                   	nop
 100362c:	90                   	nop
 100362d:	90                   	nop
 100362e:	90                   	nop
 100362f:	90                   	nop
 1003630:	90                   	nop
 1003631:	90                   	nop
 1003632:	90                   	nop
 1003633:	90                   	nop
 1003634:	90                   	nop
 1003635:	90                   	nop
 1003636:	90                   	nop
 1003637:	90                   	nop
 1003638:	90                   	nop
 1003639:	90                   	nop
 100363a:	90                   	nop
 100363b:	90                   	nop
 100363c:	90                   	nop
 100363d:	90                   	nop
 100363e:	90                   	nop
 100363f:	90                   	nop
 1003640:	90                   	nop
 1003641:	90                   	nop
 1003642:	90                   	nop
 1003643:	90                   	nop
 1003644:	90                   	nop
 1003645:	90                   	nop
 1003646:	90                   	nop
 1003647:	90                   	nop
 1003648:	90                   	nop
 1003649:	90                   	nop
 100364a:	90                   	nop
 100364b:	90                   	nop
 100364c:	90                   	nop
 100364d:	90                   	nop
 100364e:	90                   	nop
 100364f:	90                   	nop
 1003650:	90                   	nop
 1003651:	90                   	nop
 1003652:	90                   	nop
 1003653:	90                   	nop
 1003654:	90                   	nop
 1003655:	90                   	nop
 1003656:	90                   	nop
 1003657:	90                   	nop
 1003658:	90                   	nop
 1003659:	90                   	nop
 100365a:	90                   	nop
 100365b:	90                   	nop
 100365c:	90                   	nop
 100365d:	90                   	nop
 100365e:	90                   	nop
 100365f:	90                   	nop
 1003660:	90                   	nop
 1003661:	90                   	nop
 1003662:	90                   	nop
 1003663:	90                   	nop
 1003664:	90                   	nop
 1003665:	90                   	nop
 1003666:	90                   	nop
 1003667:	90                   	nop
 1003668:	90                   	nop
 1003669:	90                   	nop
 100366a:	90                   	nop
 100366b:	90                   	nop
 100366c:	90                   	nop
 100366d:	90                   	nop
 100366e:	90                   	nop
 100366f:	90                   	nop
 1003670:	90                   	nop
 1003671:	90                   	nop
 1003672:	90                   	nop
 1003673:	90                   	nop
 1003674:	90                   	nop
 1003675:	90                   	nop
 1003676:	90                   	nop
 1003677:	90                   	nop
 1003678:	90                   	nop
 1003679:	90                   	nop
 100367a:	90                   	nop
 100367b:	90                   	nop
 100367c:	90                   	nop
 100367d:	90                   	nop
 100367e:	90                   	nop
 100367f:	90                   	nop
 1003680:	90                   	nop
 1003681:	90                   	nop
 1003682:	90                   	nop
 1003683:	90                   	nop
 1003684:	90                   	nop
 1003685:	90                   	nop
 1003686:	90                   	nop
 1003687:	90                   	nop
 1003688:	90                   	nop
 1003689:	90                   	nop
 100368a:	90                   	nop
 100368b:	90                   	nop
 100368c:	90                   	nop
 100368d:	90                   	nop
 100368e:	90                   	nop
 100368f:	90                   	nop
 1003690:	90                   	nop
 1003691:	90                   	nop
 1003692:	90                   	nop
 1003693:	90                   	nop
 1003694:	90                   	nop
 1003695:	90                   	nop
 1003696:	90                   	nop
 1003697:	90                   	nop
 1003698:	90                   	nop
 1003699:	90                   	nop
 100369a:	90                   	nop
 100369b:	90                   	nop
 100369c:	90                   	nop
 100369d:	90                   	nop
 100369e:	90                   	nop
 100369f:	90                   	nop
 10036a0:	90                   	nop
 10036a1:	90                   	nop
 10036a2:	90                   	nop
 10036a3:	90                   	nop
 10036a4:	90                   	nop
 10036a5:	90                   	nop
 10036a6:	90                   	nop
 10036a7:	90                   	nop
 10036a8:	90                   	nop
 10036a9:	90                   	nop
 10036aa:	90                   	nop
 10036ab:	90                   	nop
 10036ac:	90                   	nop
 10036ad:	90                   	nop
 10036ae:	90                   	nop
 10036af:	90                   	nop
 10036b0:	90                   	nop
 10036b1:	90                   	nop
 10036b2:	90                   	nop
 10036b3:	90                   	nop
 10036b4:	90                   	nop
 10036b5:	90                   	nop
 10036b6:	90                   	nop
 10036b7:	90                   	nop
 10036b8:	90                   	nop
 10036b9:	90                   	nop
 10036ba:	90                   	nop
 10036bb:	90                   	nop
 10036bc:	90                   	nop
 10036bd:	90                   	nop
 10036be:	90                   	nop
 10036bf:	90                   	nop
 10036c0:	90                   	nop
 10036c1:	90                   	nop
 10036c2:	90                   	nop
 10036c3:	90                   	nop
 10036c4:	90                   	nop
 10036c5:	90                   	nop
 10036c6:	90                   	nop
 10036c7:	90                   	nop
 10036c8:	90                   	nop
 10036c9:	90                   	nop
 10036ca:	90                   	nop
 10036cb:	90                   	nop
 10036cc:	90                   	nop
 10036cd:	90                   	nop
 10036ce:	90                   	nop
 10036cf:	90                   	nop
 10036d0:	90                   	nop
 10036d1:	90                   	nop
 10036d2:	90                   	nop
 10036d3:	90                   	nop
 10036d4:	90                   	nop
 10036d5:	90                   	nop
 10036d6:	90                   	nop
 10036d7:	90                   	nop
 10036d8:	90                   	nop
 10036d9:	90                   	nop
 10036da:	90                   	nop
 10036db:	90                   	nop
 10036dc:	90                   	nop
 10036dd:	90                   	nop
 10036de:	90                   	nop
 10036df:	90                   	nop
 10036e0:	90                   	nop
 10036e1:	90                   	nop
 10036e2:	90                   	nop
 10036e3:	90                   	nop
 10036e4:	90                   	nop
 10036e5:	90                   	nop
 10036e6:	90                   	nop
 10036e7:	90                   	nop
 10036e8:	90                   	nop
 10036e9:	90                   	nop
 10036ea:	90                   	nop
 10036eb:	90                   	nop
 10036ec:	90                   	nop
 10036ed:	90                   	nop
 10036ee:	90                   	nop
 10036ef:	90                   	nop
 10036f0:	90                   	nop
 10036f1:	90                   	nop
 10036f2:	90                   	nop
 10036f3:	90                   	nop
 10036f4:	90                   	nop
 10036f5:	90                   	nop
 10036f6:	90                   	nop
 10036f7:	90                   	nop
 10036f8:	90                   	nop
 10036f9:	90                   	nop
 10036fa:	90                   	nop
 10036fb:	90                   	nop
 10036fc:	90                   	nop
 10036fd:	90                   	nop
 10036fe:	90                   	nop
 10036ff:	90                   	nop
 1003700:	90                   	nop
 1003701:	90                   	nop
 1003702:	90                   	nop
 1003703:	90                   	nop
 1003704:	90                   	nop
 1003705:	90                   	nop
 1003706:	90                   	nop
 1003707:	90                   	nop
 1003708:	90                   	nop
 1003709:	90                   	nop
 100370a:	90                   	nop
 100370b:	90                   	nop
 100370c:	90                   	nop
 100370d:	90                   	nop
 100370e:	90                   	nop
 100370f:	90                   	nop
 1003710:	90                   	nop
 1003711:	90                   	nop
 1003712:	90                   	nop
 1003713:	90                   	nop
 1003714:	90                   	nop
 1003715:	90                   	nop
 1003716:	90                   	nop
 1003717:	90                   	nop
 1003718:	90                   	nop
 1003719:	90                   	nop
 100371a:	90                   	nop
 100371b:	90                   	nop
 100371c:	90                   	nop
 100371d:	90                   	nop
 100371e:	90                   	nop
 100371f:	90                   	nop
 1003720:	90                   	nop
 1003721:	90                   	nop
 1003722:	90                   	nop
 1003723:	90                   	nop
 1003724:	90                   	nop
 1003725:	90                   	nop
 1003726:	90                   	nop
 1003727:	90                   	nop
 1003728:	90                   	nop
 1003729:	90                   	nop
 100372a:	90                   	nop
 100372b:	90                   	nop
 100372c:	90                   	nop
 100372d:	90                   	nop
 100372e:	90                   	nop
 100372f:	90                   	nop
 1003730:	90                   	nop
 1003731:	90                   	nop
 1003732:	90                   	nop
 1003733:	90                   	nop
 1003734:	90                   	nop
 1003735:	90                   	nop
 1003736:	90                   	nop
 1003737:	90                   	nop
 1003738:	90                   	nop
 1003739:	90                   	nop
 100373a:	90                   	nop
 100373b:	90                   	nop
 100373c:	90                   	nop
 100373d:	90                   	nop
 100373e:	90                   	nop
 100373f:	90                   	nop
 1003740:	90                   	nop
 1003741:	90                   	nop
 1003742:	90                   	nop
 1003743:	90                   	nop
 1003744:	90                   	nop
 1003745:	90                   	nop
 1003746:	90                   	nop
 1003747:	90                   	nop
 1003748:	90                   	nop
 1003749:	90                   	nop
 100374a:	90                   	nop
 100374b:	90                   	nop
 100374c:	90                   	nop
 100374d:	90                   	nop
 100374e:	90                   	nop
 100374f:	90                   	nop
 1003750:	90                   	nop
 1003751:	90                   	nop
 1003752:	90                   	nop
 1003753:	90                   	nop
 1003754:	90                   	nop
 1003755:	90                   	nop
 1003756:	90                   	nop
 1003757:	90                   	nop
 1003758:	90                   	nop
 1003759:	90                   	nop
 100375a:	90                   	nop
 100375b:	90                   	nop
 100375c:	90                   	nop
 100375d:	90                   	nop
 100375e:	90                   	nop
 100375f:	90                   	nop
 1003760:	90                   	nop
 1003761:	90                   	nop
 1003762:	90                   	nop
 1003763:	90                   	nop
 1003764:	90                   	nop
 1003765:	90                   	nop
 1003766:	90                   	nop
 1003767:	90                   	nop
 1003768:	90                   	nop
 1003769:	90                   	nop
 100376a:	90                   	nop
 100376b:	90                   	nop
 100376c:	90                   	nop
 100376d:	90                   	nop
 100376e:	90                   	nop
 100376f:	90                   	nop
 1003770:	90                   	nop
 1003771:	90                   	nop
 1003772:	90                   	nop
 1003773:	90                   	nop
 1003774:	90                   	nop
 1003775:	90                   	nop
 1003776:	90                   	nop
 1003777:	90                   	nop
 1003778:	90                   	nop
 1003779:	90                   	nop
 100377a:	90                   	nop
 100377b:	90                   	nop
 100377c:	90                   	nop
 100377d:	90                   	nop
 100377e:	90                   	nop
 100377f:	90                   	nop
 1003780:	90                   	nop
 1003781:	90                   	nop
 1003782:	90                   	nop
 1003783:	90                   	nop
 1003784:	90                   	nop
 1003785:	90                   	nop
 1003786:	90                   	nop
 1003787:	90                   	nop
 1003788:	90                   	nop
 1003789:	90                   	nop
 100378a:	90                   	nop
 100378b:	90                   	nop
 100378c:	90                   	nop
 100378d:	90                   	nop
 100378e:	90                   	nop
 100378f:	90                   	nop
 1003790:	90                   	nop
 1003791:	90                   	nop
 1003792:	90                   	nop
 1003793:	90                   	nop
 1003794:	90                   	nop
 1003795:	90                   	nop
 1003796:	90                   	nop
 1003797:	90                   	nop
 1003798:	90                   	nop
 1003799:	90                   	nop
 100379a:	90                   	nop
 100379b:	90                   	nop
 100379c:	90                   	nop
 100379d:	90                   	nop
 100379e:	90                   	nop
 100379f:	90                   	nop
 10037a0:	90                   	nop
 10037a1:	90                   	nop
 10037a2:	90                   	nop
 10037a3:	90                   	nop
 10037a4:	90                   	nop
 10037a5:	90                   	nop
 10037a6:	90                   	nop
 10037a7:	90                   	nop
 10037a8:	90                   	nop
 10037a9:	90                   	nop
 10037aa:	90                   	nop
 10037ab:	90                   	nop
 10037ac:	90                   	nop
 10037ad:	90                   	nop
 10037ae:	90                   	nop
 10037af:	90                   	nop
 10037b0:	90                   	nop
 10037b1:	90                   	nop
 10037b2:	90                   	nop
 10037b3:	90                   	nop
 10037b4:	90                   	nop
 10037b5:	90                   	nop
 10037b6:	90                   	nop
 10037b7:	90                   	nop
 10037b8:	90                   	nop
 10037b9:	90                   	nop
 10037ba:	90                   	nop
 10037bb:	90                   	nop
 10037bc:	90                   	nop
 10037bd:	90                   	nop
 10037be:	90                   	nop
 10037bf:	90                   	nop
 10037c0:	90                   	nop
 10037c1:	90                   	nop
 10037c2:	90                   	nop
 10037c3:	90                   	nop
 10037c4:	90                   	nop
 10037c5:	90                   	nop
 10037c6:	90                   	nop
 10037c7:	90                   	nop
 10037c8:	90                   	nop
 10037c9:	90                   	nop
 10037ca:	90                   	nop
 10037cb:	90                   	nop
 10037cc:	90                   	nop
 10037cd:	90                   	nop
 10037ce:	90                   	nop
 10037cf:	90                   	nop
 10037d0:	90                   	nop
 10037d1:	90                   	nop
 10037d2:	90                   	nop
 10037d3:	90                   	nop
 10037d4:	90                   	nop
 10037d5:	90                   	nop
 10037d6:	90                   	nop
 10037d7:	90                   	nop
 10037d8:	90                   	nop
 10037d9:	90                   	nop
 10037da:	90                   	nop
 10037db:	90                   	nop
 10037dc:	90                   	nop
 10037dd:	90                   	nop
 10037de:	90                   	nop
 10037df:	90                   	nop
 10037e0:	90                   	nop
 10037e1:	90                   	nop
 10037e2:	90                   	nop
 10037e3:	90                   	nop
 10037e4:	90                   	nop
 10037e5:	90                   	nop
 10037e6:	90                   	nop
 10037e7:	90                   	nop
 10037e8:	90                   	nop
 10037e9:	90                   	nop
 10037ea:	90                   	nop
 10037eb:	90                   	nop
 10037ec:	90                   	nop
 10037ed:	90                   	nop
 10037ee:	90                   	nop
 10037ef:	90                   	nop
 10037f0:	90                   	nop
 10037f1:	90                   	nop
 10037f2:	90                   	nop
 10037f3:	90                   	nop
 10037f4:	90                   	nop
 10037f5:	90                   	nop
 10037f6:	90                   	nop
 10037f7:	90                   	nop
 10037f8:	90                   	nop
 10037f9:	90                   	nop
 10037fa:	90                   	nop
 10037fb:	90                   	nop
 10037fc:	90                   	nop
 10037fd:	90                   	nop
 10037fe:	90                   	nop
 10037ff:	90                   	nop
 1003800:	90                   	nop
 1003801:	90                   	nop
 1003802:	90                   	nop
 1003803:	90                   	nop
 1003804:	90                   	nop
 1003805:	90                   	nop
 1003806:	90                   	nop
 1003807:	90                   	nop
 1003808:	90                   	nop
 1003809:	90                   	nop
 100380a:	90                   	nop
 100380b:	90                   	nop
 100380c:	90                   	nop
 100380d:	90                   	nop
 100380e:	90                   	nop
 100380f:	90                   	nop
 1003810:	90                   	nop
 1003811:	90                   	nop
 1003812:	90                   	nop
 1003813:	90                   	nop
 1003814:	90                   	nop
 1003815:	90                   	nop
 1003816:	90                   	nop
 1003817:	90                   	nop
 1003818:	90                   	nop
 1003819:	90                   	nop
 100381a:	90                   	nop
 100381b:	90                   	nop
 100381c:	90                   	nop
 100381d:	90                   	nop
 100381e:	90                   	nop
 100381f:	90                   	nop
 1003820:	90                   	nop
 1003821:	90                   	nop
 1003822:	90                   	nop
 1003823:	90                   	nop
 1003824:	90                   	nop
 1003825:	90                   	nop
 1003826:	90                   	nop
 1003827:	90                   	nop
 1003828:	90                   	nop
 1003829:	90                   	nop
 100382a:	90                   	nop
 100382b:	90                   	nop
 100382c:	90                   	nop
 100382d:	90                   	nop
 100382e:	90                   	nop
 100382f:	90                   	nop
 1003830:	90                   	nop
 1003831:	90                   	nop
 1003832:	90                   	nop
 1003833:	90                   	nop
 1003834:	90                   	nop
 1003835:	90                   	nop
 1003836:	90                   	nop
 1003837:	90                   	nop
 1003838:	90                   	nop
 1003839:	90                   	nop
 100383a:	90                   	nop
 100383b:	90                   	nop
 100383c:	90                   	nop
 100383d:	90                   	nop
 100383e:	90                   	nop
 100383f:	90                   	nop
 1003840:	90                   	nop
 1003841:	90                   	nop
 1003842:	90                   	nop
 1003843:	90                   	nop
 1003844:	90                   	nop
 1003845:	90                   	nop
 1003846:	90                   	nop
 1003847:	90                   	nop
 1003848:	90                   	nop
 1003849:	90                   	nop
 100384a:	90                   	nop
 100384b:	90                   	nop
 100384c:	90                   	nop
 100384d:	90                   	nop
 100384e:	90                   	nop
 100384f:	90                   	nop
 1003850:	90                   	nop
 1003851:	90                   	nop
 1003852:	90                   	nop
 1003853:	90                   	nop
 1003854:	90                   	nop
 1003855:	90                   	nop
 1003856:	90                   	nop
 1003857:	90                   	nop
 1003858:	90                   	nop
 1003859:	90                   	nop
 100385a:	90                   	nop
 100385b:	90                   	nop
 100385c:	90                   	nop
 100385d:	90                   	nop
 100385e:	90                   	nop
 100385f:	90                   	nop
 1003860:	90                   	nop
 1003861:	90                   	nop
 1003862:	90                   	nop
 1003863:	90                   	nop
 1003864:	90                   	nop
 1003865:	90                   	nop
 1003866:	90                   	nop
 1003867:	90                   	nop
 1003868:	90                   	nop
 1003869:	90                   	nop
 100386a:	90                   	nop
 100386b:	90                   	nop
 100386c:	90                   	nop
 100386d:	90                   	nop
 100386e:	90                   	nop
 100386f:	90                   	nop
 1003870:	90                   	nop
 1003871:	90                   	nop
 1003872:	90                   	nop
 1003873:	90                   	nop
 1003874:	90                   	nop
 1003875:	90                   	nop
 1003876:	90                   	nop
 1003877:	90                   	nop
 1003878:	90                   	nop
 1003879:	90                   	nop
 100387a:	90                   	nop
 100387b:	90                   	nop
 100387c:	90                   	nop
 100387d:	90                   	nop
 100387e:	90                   	nop
 100387f:	90                   	nop
 1003880:	90                   	nop
 1003881:	90                   	nop
 1003882:	90                   	nop
 1003883:	90                   	nop
 1003884:	90                   	nop
 1003885:	90                   	nop
 1003886:	90                   	nop
 1003887:	90                   	nop
 1003888:	90                   	nop
 1003889:	90                   	nop
 100388a:	90                   	nop
 100388b:	90                   	nop
 100388c:	90                   	nop
 100388d:	90                   	nop
 100388e:	90                   	nop
 100388f:	90                   	nop
 1003890:	90                   	nop
 1003891:	90                   	nop
 1003892:	90                   	nop
 1003893:	90                   	nop
 1003894:	90                   	nop
 1003895:	90                   	nop
 1003896:	90                   	nop
 1003897:	90                   	nop
 1003898:	90                   	nop
 1003899:	90                   	nop
 100389a:	90                   	nop
 100389b:	90                   	nop
 100389c:	90                   	nop
 100389d:	90                   	nop
 100389e:	90                   	nop
 100389f:	90                   	nop
 10038a0:	90                   	nop
 10038a1:	90                   	nop
 10038a2:	90                   	nop
 10038a3:	90                   	nop
 10038a4:	90                   	nop
 10038a5:	90                   	nop
 10038a6:	90                   	nop
 10038a7:	90                   	nop
 10038a8:	90                   	nop
 10038a9:	90                   	nop
 10038aa:	90                   	nop
 10038ab:	90                   	nop
 10038ac:	90                   	nop
 10038ad:	90                   	nop
 10038ae:	90                   	nop
 10038af:	90                   	nop
 10038b0:	90                   	nop
 10038b1:	90                   	nop
 10038b2:	90                   	nop
 10038b3:	90                   	nop
 10038b4:	90                   	nop
 10038b5:	90                   	nop
 10038b6:	90                   	nop
 10038b7:	90                   	nop
 10038b8:	90                   	nop
 10038b9:	90                   	nop
 10038ba:	90                   	nop
 10038bb:	90                   	nop
 10038bc:	90                   	nop
 10038bd:	90                   	nop
 10038be:	90                   	nop
 10038bf:	90                   	nop
 10038c0:	90                   	nop
 10038c1:	90                   	nop
 10038c2:	90                   	nop
 10038c3:	90                   	nop
 10038c4:	90                   	nop
 10038c5:	90                   	nop
 10038c6:	90                   	nop
 10038c7:	90                   	nop
 10038c8:	90                   	nop
 10038c9:	90                   	nop
 10038ca:	90                   	nop
 10038cb:	90                   	nop
 10038cc:	90                   	nop
 10038cd:	90                   	nop
 10038ce:	90                   	nop
 10038cf:	90                   	nop
 10038d0:	90                   	nop
 10038d1:	90                   	nop
 10038d2:	90                   	nop
 10038d3:	90                   	nop
 10038d4:	90                   	nop
 10038d5:	90                   	nop
 10038d6:	90                   	nop
 10038d7:	90                   	nop
 10038d8:	90                   	nop
 10038d9:	90                   	nop
 10038da:	90                   	nop
 10038db:	90                   	nop
 10038dc:	90                   	nop
 10038dd:	90                   	nop
 10038de:	90                   	nop
 10038df:	90                   	nop
 10038e0:	90                   	nop
 10038e1:	90                   	nop
 10038e2:	90                   	nop
 10038e3:	90                   	nop
 10038e4:	90                   	nop
 10038e5:	90                   	nop
 10038e6:	90                   	nop
 10038e7:	90                   	nop
 10038e8:	90                   	nop
 10038e9:	90                   	nop
 10038ea:	90                   	nop
 10038eb:	90                   	nop
 10038ec:	90                   	nop
 10038ed:	90                   	nop
 10038ee:	90                   	nop
 10038ef:	90                   	nop
 10038f0:	90                   	nop
 10038f1:	90                   	nop
 10038f2:	90                   	nop
 10038f3:	90                   	nop
 10038f4:	90                   	nop
 10038f5:	90                   	nop
 10038f6:	90                   	nop
 10038f7:	90                   	nop
 10038f8:	90                   	nop
 10038f9:	90                   	nop
 10038fa:	90                   	nop
 10038fb:	90                   	nop
 10038fc:	90                   	nop
 10038fd:	90                   	nop
 10038fe:	90                   	nop
 10038ff:	90                   	nop
 1003900:	90                   	nop
 1003901:	90                   	nop
 1003902:	90                   	nop
 1003903:	90                   	nop
 1003904:	90                   	nop
 1003905:	90                   	nop
 1003906:	90                   	nop
 1003907:	90                   	nop
 1003908:	90                   	nop
 1003909:	90                   	nop
 100390a:	90                   	nop
 100390b:	90                   	nop
 100390c:	90                   	nop
 100390d:	90                   	nop
 100390e:	90                   	nop
 100390f:	90                   	nop
 1003910:	90                   	nop
 1003911:	90                   	nop
 1003912:	90                   	nop
 1003913:	90                   	nop
 1003914:	90                   	nop
 1003915:	90                   	nop
 1003916:	90                   	nop
 1003917:	90                   	nop
 1003918:	90                   	nop
 1003919:	90                   	nop
 100391a:	90                   	nop
 100391b:	90                   	nop
 100391c:	90                   	nop
 100391d:	90                   	nop
 100391e:	90                   	nop
 100391f:	90                   	nop
 1003920:	90                   	nop
 1003921:	90                   	nop
 1003922:	90                   	nop
 1003923:	90                   	nop
 1003924:	90                   	nop
 1003925:	90                   	nop
 1003926:	90                   	nop
 1003927:	90                   	nop
 1003928:	90                   	nop
 1003929:	90                   	nop
 100392a:	90                   	nop
 100392b:	90                   	nop
 100392c:	90                   	nop
 100392d:	90                   	nop
 100392e:	90                   	nop
 100392f:	90                   	nop
 1003930:	90                   	nop
 1003931:	90                   	nop
 1003932:	90                   	nop
 1003933:	90                   	nop
 1003934:	90                   	nop
 1003935:	90                   	nop
 1003936:	90                   	nop
 1003937:	90                   	nop
 1003938:	90                   	nop
 1003939:	90                   	nop
 100393a:	90                   	nop
 100393b:	90                   	nop
 100393c:	90                   	nop
 100393d:	90                   	nop
 100393e:	90                   	nop
 100393f:	90                   	nop
 1003940:	90                   	nop
 1003941:	90                   	nop
 1003942:	90                   	nop
 1003943:	90                   	nop
 1003944:	90                   	nop
 1003945:	90                   	nop
 1003946:	90                   	nop
 1003947:	90                   	nop
 1003948:	90                   	nop
 1003949:	90                   	nop
 100394a:	90                   	nop
 100394b:	90                   	nop
 100394c:	90                   	nop
 100394d:	90                   	nop
 100394e:	90                   	nop
 100394f:	90                   	nop
 1003950:	90                   	nop
 1003951:	90                   	nop
 1003952:	90                   	nop
 1003953:	90                   	nop
 1003954:	90                   	nop
 1003955:	90                   	nop
 1003956:	90                   	nop
 1003957:	90                   	nop
 1003958:	90                   	nop
 1003959:	90                   	nop
 100395a:	90                   	nop
 100395b:	90                   	nop
 100395c:	90                   	nop
 100395d:	90                   	nop
 100395e:	90                   	nop
 100395f:	90                   	nop
 1003960:	90                   	nop
 1003961:	90                   	nop
 1003962:	90                   	nop
 1003963:	90                   	nop
 1003964:	90                   	nop
 1003965:	90                   	nop
 1003966:	90                   	nop
 1003967:	90                   	nop
 1003968:	90                   	nop
 1003969:	90                   	nop
 100396a:	90                   	nop
 100396b:	90                   	nop
 100396c:	90                   	nop
 100396d:	90                   	nop
 100396e:	90                   	nop
 100396f:	90                   	nop
 1003970:	90                   	nop
 1003971:	90                   	nop
 1003972:	90                   	nop
 1003973:	90                   	nop
 1003974:	90                   	nop
 1003975:	90                   	nop
 1003976:	90                   	nop
 1003977:	90                   	nop
 1003978:	90                   	nop
 1003979:	90                   	nop
 100397a:	90                   	nop
 100397b:	90                   	nop
 100397c:	90                   	nop
 100397d:	90                   	nop
 100397e:	90                   	nop
 100397f:	90                   	nop
 1003980:	90                   	nop
 1003981:	90                   	nop
 1003982:	90                   	nop
 1003983:	90                   	nop
 1003984:	90                   	nop
 1003985:	90                   	nop
 1003986:	90                   	nop
 1003987:	90                   	nop
 1003988:	90                   	nop
 1003989:	90                   	nop
 100398a:	90                   	nop
 100398b:	90                   	nop
 100398c:	90                   	nop
 100398d:	90                   	nop
 100398e:	90                   	nop
 100398f:	90                   	nop
 1003990:	90                   	nop
 1003991:	90                   	nop
 1003992:	90                   	nop
 1003993:	90                   	nop
 1003994:	90                   	nop
 1003995:	90                   	nop
 1003996:	90                   	nop
 1003997:	90                   	nop
 1003998:	90                   	nop
 1003999:	90                   	nop
 100399a:	90                   	nop
 100399b:	90                   	nop
 100399c:	90                   	nop
 100399d:	90                   	nop
 100399e:	90                   	nop
 100399f:	90                   	nop
 10039a0:	90                   	nop
 10039a1:	90                   	nop
 10039a2:	90                   	nop
 10039a3:	90                   	nop
 10039a4:	90                   	nop
 10039a5:	90                   	nop
 10039a6:	90                   	nop
 10039a7:	90                   	nop
 10039a8:	90                   	nop
 10039a9:	90                   	nop
 10039aa:	90                   	nop
 10039ab:	90                   	nop
 10039ac:	90                   	nop
 10039ad:	90                   	nop
 10039ae:	90                   	nop
 10039af:	90                   	nop
 10039b0:	90                   	nop
 10039b1:	90                   	nop
 10039b2:	90                   	nop
 10039b3:	90                   	nop
 10039b4:	90                   	nop
 10039b5:	90                   	nop
 10039b6:	90                   	nop
 10039b7:	90                   	nop
 10039b8:	90                   	nop
 10039b9:	90                   	nop
 10039ba:	90                   	nop
 10039bb:	90                   	nop
 10039bc:	90                   	nop
 10039bd:	90                   	nop
 10039be:	90                   	nop
 10039bf:	90                   	nop
 10039c0:	90                   	nop
 10039c1:	90                   	nop
 10039c2:	90                   	nop
 10039c3:	90                   	nop
 10039c4:	90                   	nop
 10039c5:	90                   	nop
 10039c6:	90                   	nop
 10039c7:	90                   	nop
 10039c8:	90                   	nop
 10039c9:	90                   	nop
 10039ca:	90                   	nop
 10039cb:	90                   	nop
 10039cc:	90                   	nop
 10039cd:	90                   	nop
 10039ce:	90                   	nop
 10039cf:	90                   	nop
 10039d0:	90                   	nop
 10039d1:	90                   	nop
 10039d2:	90                   	nop
 10039d3:	90                   	nop
 10039d4:	90                   	nop
 10039d5:	90                   	nop
 10039d6:	90                   	nop
 10039d7:	90                   	nop
 10039d8:	90                   	nop
 10039d9:	90                   	nop
 10039da:	90                   	nop
 10039db:	90                   	nop
 10039dc:	90                   	nop
 10039dd:	90                   	nop
 10039de:	90                   	nop
 10039df:	90                   	nop
 10039e0:	90                   	nop
 10039e1:	90                   	nop
 10039e2:	90                   	nop
 10039e3:	90                   	nop
 10039e4:	90                   	nop
 10039e5:	90                   	nop
 10039e6:	90                   	nop
 10039e7:	90                   	nop
 10039e8:	90                   	nop
 10039e9:	90                   	nop
 10039ea:	90                   	nop
 10039eb:	90                   	nop
 10039ec:	90                   	nop
 10039ed:	90                   	nop
 10039ee:	90                   	nop
 10039ef:	90                   	nop
 10039f0:	90                   	nop
 10039f1:	90                   	nop
 10039f2:	90                   	nop
 10039f3:	90                   	nop
 10039f4:	90                   	nop
 10039f5:	90                   	nop
 10039f6:	90                   	nop
 10039f7:	90                   	nop
 10039f8:	90                   	nop
 10039f9:	90                   	nop
 10039fa:	90                   	nop
 10039fb:	90                   	nop
 10039fc:	90                   	nop
 10039fd:	90                   	nop
 10039fe:	90                   	nop
 10039ff:	90                   	nop
 1003a00:	90                   	nop
 1003a01:	90                   	nop
 1003a02:	90                   	nop
 1003a03:	90                   	nop
 1003a04:	90                   	nop
 1003a05:	90                   	nop
 1003a06:	90                   	nop
 1003a07:	90                   	nop
 1003a08:	90                   	nop
 1003a09:	90                   	nop
 1003a0a:	90                   	nop
 1003a0b:	90                   	nop
 1003a0c:	90                   	nop
 1003a0d:	90                   	nop
 1003a0e:	90                   	nop
 1003a0f:	90                   	nop
 1003a10:	90                   	nop
 1003a11:	90                   	nop
 1003a12:	90                   	nop
 1003a13:	90                   	nop
 1003a14:	90                   	nop
 1003a15:	90                   	nop
 1003a16:	90                   	nop
 1003a17:	90                   	nop
 1003a18:	90                   	nop
 1003a19:	90                   	nop
 1003a1a:	90                   	nop
 1003a1b:	90                   	nop
 1003a1c:	90                   	nop
 1003a1d:	90                   	nop
 1003a1e:	90                   	nop
 1003a1f:	90                   	nop
 1003a20:	90                   	nop
 1003a21:	90                   	nop
 1003a22:	90                   	nop
 1003a23:	90                   	nop
 1003a24:	90                   	nop
 1003a25:	90                   	nop
 1003a26:	90                   	nop
 1003a27:	90                   	nop
 1003a28:	90                   	nop
 1003a29:	90                   	nop
 1003a2a:	90                   	nop
 1003a2b:	90                   	nop
 1003a2c:	90                   	nop
 1003a2d:	90                   	nop
 1003a2e:	90                   	nop
 1003a2f:	90                   	nop
 1003a30:	90                   	nop
 1003a31:	90                   	nop
 1003a32:	90                   	nop
 1003a33:	90                   	nop
 1003a34:	90                   	nop
 1003a35:	90                   	nop
 1003a36:	90                   	nop
 1003a37:	90                   	nop
 1003a38:	90                   	nop
 1003a39:	90                   	nop
 1003a3a:	90                   	nop
 1003a3b:	90                   	nop
 1003a3c:	90                   	nop
 1003a3d:	90                   	nop
 1003a3e:	90                   	nop
 1003a3f:	90                   	nop
 1003a40:	90                   	nop
 1003a41:	90                   	nop
 1003a42:	90                   	nop
 1003a43:	90                   	nop
 1003a44:	90                   	nop
 1003a45:	90                   	nop
 1003a46:	90                   	nop
 1003a47:	90                   	nop
 1003a48:	90                   	nop
 1003a49:	90                   	nop
 1003a4a:	90                   	nop
 1003a4b:	90                   	nop
 1003a4c:	90                   	nop
 1003a4d:	90                   	nop
 1003a4e:	90                   	nop
 1003a4f:	90                   	nop
 1003a50:	90                   	nop
 1003a51:	90                   	nop
 1003a52:	90                   	nop
 1003a53:	90                   	nop
 1003a54:	90                   	nop
 1003a55:	90                   	nop
 1003a56:	90                   	nop
 1003a57:	90                   	nop
 1003a58:	90                   	nop
 1003a59:	90                   	nop
 1003a5a:	90                   	nop
 1003a5b:	90                   	nop
 1003a5c:	90                   	nop
 1003a5d:	90                   	nop
 1003a5e:	90                   	nop
 1003a5f:	90                   	nop
 1003a60:	90                   	nop
 1003a61:	90                   	nop
 1003a62:	90                   	nop
 1003a63:	90                   	nop
 1003a64:	90                   	nop
 1003a65:	90                   	nop
 1003a66:	90                   	nop
 1003a67:	90                   	nop
 1003a68:	90                   	nop
 1003a69:	90                   	nop
 1003a6a:	90                   	nop
 1003a6b:	90                   	nop
 1003a6c:	90                   	nop
 1003a6d:	90                   	nop
 1003a6e:	90                   	nop
 1003a6f:	90                   	nop
 1003a70:	90                   	nop
 1003a71:	90                   	nop
 1003a72:	90                   	nop
 1003a73:	90                   	nop
 1003a74:	90                   	nop
 1003a75:	90                   	nop
 1003a76:	90                   	nop
 1003a77:	90                   	nop
 1003a78:	90                   	nop
 1003a79:	90                   	nop
 1003a7a:	90                   	nop
 1003a7b:	90                   	nop
 1003a7c:	90                   	nop
 1003a7d:	90                   	nop
 1003a7e:	90                   	nop
 1003a7f:	90                   	nop
 1003a80:	90                   	nop
 1003a81:	90                   	nop
 1003a82:	90                   	nop
 1003a83:	90                   	nop
 1003a84:	90                   	nop
 1003a85:	90                   	nop
 1003a86:	90                   	nop
 1003a87:	90                   	nop
 1003a88:	90                   	nop
 1003a89:	90                   	nop
 1003a8a:	90                   	nop
 1003a8b:	90                   	nop
 1003a8c:	90                   	nop
 1003a8d:	90                   	nop
 1003a8e:	90                   	nop
 1003a8f:	90                   	nop
 1003a90:	90                   	nop
 1003a91:	90                   	nop
 1003a92:	90                   	nop
 1003a93:	90                   	nop
 1003a94:	90                   	nop
 1003a95:	90                   	nop
 1003a96:	90                   	nop
 1003a97:	90                   	nop
 1003a98:	90                   	nop
 1003a99:	90                   	nop
 1003a9a:	90                   	nop
 1003a9b:	90                   	nop
 1003a9c:	90                   	nop
 1003a9d:	90                   	nop
 1003a9e:	90                   	nop
 1003a9f:	90                   	nop
 1003aa0:	90                   	nop
 1003aa1:	90                   	nop
 1003aa2:	90                   	nop
 1003aa3:	90                   	nop
 1003aa4:	90                   	nop
 1003aa5:	90                   	nop
 1003aa6:	90                   	nop
 1003aa7:	90                   	nop
 1003aa8:	90                   	nop
 1003aa9:	90                   	nop
 1003aaa:	90                   	nop
 1003aab:	90                   	nop
 1003aac:	90                   	nop
 1003aad:	90                   	nop
 1003aae:	90                   	nop
 1003aaf:	90                   	nop
 1003ab0:	90                   	nop
 1003ab1:	90                   	nop
 1003ab2:	90                   	nop
 1003ab3:	90                   	nop
 1003ab4:	90                   	nop
 1003ab5:	90                   	nop
 1003ab6:	90                   	nop
 1003ab7:	90                   	nop
 1003ab8:	90                   	nop
 1003ab9:	90                   	nop
 1003aba:	90                   	nop
 1003abb:	90                   	nop
 1003abc:	90                   	nop
 1003abd:	90                   	nop
 1003abe:	90                   	nop
 1003abf:	90                   	nop
 1003ac0:	90                   	nop
 1003ac1:	90                   	nop
 1003ac2:	90                   	nop
 1003ac3:	90                   	nop
 1003ac4:	90                   	nop
 1003ac5:	90                   	nop
 1003ac6:	90                   	nop
 1003ac7:	90                   	nop
 1003ac8:	90                   	nop
 1003ac9:	90                   	nop
 1003aca:	90                   	nop
 1003acb:	90                   	nop
 1003acc:	90                   	nop
 1003acd:	90                   	nop
 1003ace:	90                   	nop
 1003acf:	90                   	nop
 1003ad0:	90                   	nop
 1003ad1:	90                   	nop
 1003ad2:	90                   	nop
 1003ad3:	90                   	nop
 1003ad4:	90                   	nop
 1003ad5:	90                   	nop
 1003ad6:	90                   	nop
 1003ad7:	90                   	nop
 1003ad8:	90                   	nop
 1003ad9:	90                   	nop
 1003ada:	90                   	nop
 1003adb:	90                   	nop
 1003adc:	90                   	nop
 1003add:	90                   	nop
 1003ade:	90                   	nop
 1003adf:	90                   	nop
 1003ae0:	90                   	nop
 1003ae1:	90                   	nop
 1003ae2:	90                   	nop
 1003ae3:	90                   	nop
 1003ae4:	90                   	nop
 1003ae5:	90                   	nop
 1003ae6:	90                   	nop
 1003ae7:	90                   	nop
 1003ae8:	90                   	nop
 1003ae9:	90                   	nop
 1003aea:	90                   	nop
 1003aeb:	90                   	nop
 1003aec:	90                   	nop
 1003aed:	90                   	nop
 1003aee:	90                   	nop
 1003aef:	90                   	nop
 1003af0:	90                   	nop
 1003af1:	90                   	nop
 1003af2:	90                   	nop
 1003af3:	90                   	nop
 1003af4:	90                   	nop
 1003af5:	90                   	nop
 1003af6:	90                   	nop
 1003af7:	90                   	nop
 1003af8:	90                   	nop
 1003af9:	90                   	nop
 1003afa:	90                   	nop
 1003afb:	90                   	nop
 1003afc:	90                   	nop
 1003afd:	90                   	nop
 1003afe:	90                   	nop
 1003aff:	90                   	nop
 1003b00:	90                   	nop
 1003b01:	90                   	nop
 1003b02:	90                   	nop
 1003b03:	90                   	nop
 1003b04:	90                   	nop
 1003b05:	90                   	nop
 1003b06:	90                   	nop
 1003b07:	90                   	nop
 1003b08:	90                   	nop
 1003b09:	90                   	nop
 1003b0a:	90                   	nop
 1003b0b:	90                   	nop
 1003b0c:	90                   	nop
 1003b0d:	90                   	nop
 1003b0e:	90                   	nop
 1003b0f:	90                   	nop
 1003b10:	90                   	nop
 1003b11:	90                   	nop
 1003b12:	90                   	nop
 1003b13:	90                   	nop
 1003b14:	90                   	nop
 1003b15:	90                   	nop
 1003b16:	90                   	nop
 1003b17:	90                   	nop
 1003b18:	90                   	nop
 1003b19:	90                   	nop
 1003b1a:	90                   	nop
 1003b1b:	90                   	nop
 1003b1c:	90                   	nop
 1003b1d:	90                   	nop
 1003b1e:	90                   	nop
 1003b1f:	90                   	nop
 1003b20:	90                   	nop
 1003b21:	90                   	nop
 1003b22:	90                   	nop
 1003b23:	90                   	nop
 1003b24:	90                   	nop
 1003b25:	90                   	nop
 1003b26:	90                   	nop
 1003b27:	90                   	nop
 1003b28:	90                   	nop
 1003b29:	90                   	nop
 1003b2a:	90                   	nop
 1003b2b:	90                   	nop
 1003b2c:	90                   	nop
 1003b2d:	90                   	nop
 1003b2e:	90                   	nop
 1003b2f:	90                   	nop
 1003b30:	90                   	nop
 1003b31:	90                   	nop
 1003b32:	90                   	nop
 1003b33:	90                   	nop
 1003b34:	90                   	nop
 1003b35:	90                   	nop
 1003b36:	90                   	nop
 1003b37:	90                   	nop
 1003b38:	90                   	nop
 1003b39:	90                   	nop
 1003b3a:	90                   	nop
 1003b3b:	90                   	nop
 1003b3c:	90                   	nop
 1003b3d:	90                   	nop
 1003b3e:	90                   	nop
 1003b3f:	90                   	nop
 1003b40:	90                   	nop
 1003b41:	90                   	nop
 1003b42:	90                   	nop
 1003b43:	90                   	nop
 1003b44:	90                   	nop
 1003b45:	90                   	nop
 1003b46:	90                   	nop
 1003b47:	90                   	nop
 1003b48:	90                   	nop
 1003b49:	90                   	nop
 1003b4a:	90                   	nop
 1003b4b:	90                   	nop
 1003b4c:	90                   	nop
